Microchip Technology Inc, v2.10 (B)

Tool Name:
  c:\spb_data\bin\bin\..\bin/elf-ld.exe

Command:
  -p24FJ128GA705 \
  --mdfp=D:/Program Files/packs/Microchip/PIC24F-GA-GB_DFP/1.9.336/xc16 \
  -o \
  dist/default/debug/Pure_AC164164.X3.debug.elf \
  -Lc:/spb_data/bin/bin/.. \
  -LD:/Program Files/packs/Microchip/PIC24F-GA-GB_DFP/1.9.336/xc16/bin/../support/PIC24F/gld \
  -Lc:/spb_data/bin/bin/../../lib \
  -Lc:/spb_data/bin/bin/../../support/PIC24E/gld \
  -Lc:/spb_data/bin/bin/../../support/PIC24F/gld \
  -Lc:/spb_data/bin/bin/../../support/PIC24H/gld \
  -Lc:/spb_data/bin/bin/../../support/dsPIC30F/gld \
  -Lc:/spb_data/bin/bin/../../support/dsPIC33C/gld \
  -Lc:/spb_data/bin/bin/../../support/dsPIC33E/gld \
  -Lc:/spb_data/bin/bin/../../support/dsPIC33F/gld \
  build/default/debug/mcc_generated_files/ext_int.o \
  build/default/debug/mcc_generated_files/i2c1.o \
  build/default/debug/mcc_generated_files/interrupt_manager.o \
  build/default/debug/mcc_generated_files/mcc.o \
  build/default/debug/mcc_generated_files/pin_manager.o \
  build/default/debug/mcc_generated_files/tmr1.o \
  build/default/debug/mcc_generated_files/traps.o \
  build/default/debug/mcc_generated_files/uart2.o \
  build/default/debug/mcc_generated_files/system.o \
  build/default/debug/mcc_generated_files/clock.o \
  build/default/debug/mcc_generated_files/spi1.o \
  build/default/debug/WINC1500/Board_driver/wf_mcu_driver_stub.o \
  build/default/debug/WINC1500/Driver/wf_asic.o \
  build/default/debug/WINC1500/Driver/wf_hif.o \
  build/default/debug/WINC1500/Driver/wf_ota.o \
  build/default/debug/WINC1500/Driver/wf_socket.o \
  build/default/debug/WINC1500/Driver/wf_spi.o \
  build/default/debug/WINC1500/Driver/wf_spi_flash.o \
  build/default/debug/WINC1500/Driver/wf_utils.o \
  build/default/debug/WINC1500/Driver/wf_wifi.o \
  build/default/debug/WINC1500/Example/winc1500_fw_update_over_serial.o \
  build/default/debug/WINC1500/Example/winc1500_http_download.o \
  build/default/debug/WINC1500/Example/winc1500_locate_ip_address.o \
  build/default/debug/WINC1500/Example/winc1500_mac_address.o \
  build/default/debug/WINC1500/Example/winc1500_mode_ap.o \
  build/default/debug/WINC1500/Example/winc1500_mode_change.o \
  build/default/debug/WINC1500/Example/winc1500_mode_p2p.o \
  build/default/debug/WINC1500/Example/winc1500_mode_sta.o \
  build/default/debug/WINC1500/Example/winc1500_ota_firmware_update.o \
  build/default/debug/WINC1500/Example/winc1500_power_save_mode.o \
  build/default/debug/WINC1500/Example/winc1500_provision_http.o \
  build/default/debug/WINC1500/Example/winc1500_security_wep_wpa.o \
  build/default/debug/WINC1500/Example/winc1500_security_wps.o \
  build/default/debug/WINC1500/Example/winc1500_send_email.o \
  build/default/debug/WINC1500/Example/winc1500_signal_strength.o \
  build/default/debug/WINC1500/Example/winc1500_ssl_connect.o \
  build/default/debug/WINC1500/Example/winc1500_tcp_client.o \
  build/default/debug/WINC1500/Example/winc1500_tcp_server.o \
  build/default/debug/WINC1500/Example/winc1500_time_client.o \
  build/default/debug/WINC1500/Example/winc1500_weather_client.o \
  build/default/debug/WINC1500/Support/winc1500_support_stub.o \
  build/default/debug/bsp.o \
  build/default/debug/main.o \
  build/default/debug/ST7735.o \
  --local-stack \
  --defsym=__MPLAB_BUILD=1 \
  --defsym=__MPLAB_DEBUG=1 \
  --defsym=__DEBUG=1 \
  --defsym=__MPLAB_DEBUGGER_SIMULATOR=1 \
  -Tp24FJ128GA705.gld.00 \
  --stack=16 \
  --check-sections \
  --data-init \
  --pack-data \
  --handles \
  --isr \
  --no-gc-sections \
  --fill-upper=0 \
  --stackguard=16 \
  --no-force-link \
  --smart-io \
  -Map=dist/default/debug/Pure_AC164164.X3.debug.map \
  --report-mem \
  --memorysummary \
  dist/default/debug/memoryfile.xml \
  -start-group \
  --library=c99-pic30-elf \
  --library=m-elf \
  --library=c99-elf \
  -end-group \


Optional library libpPIC24Fxxx.a not found
Archive member included because of file (symbol)

c:/spb_data/bin/bin/../../lib\libc99-pic30-elf.a(crt0_extended24.o)
                              (__resetPRI)
c:/spb_data/bin/bin/../../lib\libc99-pic30-elf.a(data_init_24.o)
                              c:/spb_data/bin/bin/../../lib\libc99-pic30-elf.a(crt0_extended24.o) (__data_init_da)
c:/spb_data/bin/bin/../../lib\libc99-pic30-elf.a(crt_start_mode_normalda.Meo)
                              (__crt_start_mode_normal)
c:/spb_data/bin/bin/../../lib\libc99-pic30-elf.a(umodsi3.DA_o)
                              build/default/debug/WINC1500/Driver/wf_spi_flash.o (___umodsi3)
c:/spb_data/bin/bin/../../lib\libc99-pic30-elf.a(udivsi3.DA_o)
                              c:/spb_data/bin/bin/../../lib\libc99-pic30-elf.a(umodsi3.DA_o) (___udivsi3)
c:/spb_data/bin/bin/../../lib\libc99-elf.a(__sio_printf_0.DA_o)
                              build/default/debug/WINC1500/Example/winc1500_provision_http.o (__printf_0)
c:/spb_data/bin/bin/../../lib\libc99-elf.a(__sio_printf_dosux.DA_o)
                              build/default/debug/WINC1500/Driver/wf_wifi.o (__printf_cdnopsuxX)
c:/spb_data/bin/bin/../../lib\libc99-elf.a(__sio_printf_doux.DA_o)
                              build/default/debug/WINC1500/Driver/wf_hif.o (__printf_cdnopuxX)
c:/spb_data/bin/bin/../../lib\libc99-elf.a(__sio_printf_s.DA_o)
                              build/default/debug/WINC1500/Example/winc1500_provision_http.o (__printf_s)
c:/spb_data/bin/bin/../../lib\libc99-elf.a(__sio_sprintf_doux.DA_o)
                              build/default/debug/WINC1500/Driver/wf_utils.o (__sprintf_cdnopuxX)
c:/spb_data/bin/bin/../../lib\libc99-elf.a(atoi.DA_o)
                              build/default/debug/WINC1500/Driver/wf_utils.o (_atoi)
c:/spb_data/bin/bin/../../lib\libc99-elf.a(memcpy.DA_o)
                              build/default/debug/WINC1500/Driver/wf_asic.o (_memcpy)
c:/spb_data/bin/bin/../../lib\libc99-elf.a(memset.DA_o)
                              build/default/debug/WINC1500/Driver/wf_hif.o (_memset)
c:/spb_data/bin/bin/../../lib\libc99-elf.a(printf.DA_o)
                              build/default/debug/main.o (_printf)
c:/spb_data/bin/bin/../../lib\libc99-elf.a(puts.DA_o)
                              build/default/debug/WINC1500/Driver/wf_asic.o (_puts)
c:/spb_data/bin/bin/../../lib\libc99-elf.a(stdout.DA_o)
                              c:/spb_data/bin/bin/../../lib\libc99-elf.a(__sio_printf_0.DA_o) (__stdout)
c:/spb_data/bin/bin/../../lib\libc99-elf.a(strcpy.DA_o)
                              build/default/debug/WINC1500/Driver/wf_utils.o (_strcpy)
c:/spb_data/bin/bin/../../lib\libc99-elf.a(strlen.DA_o)
                              build/default/debug/WINC1500/Driver/wf_ota.o (_strlen)
c:/spb_data/bin/bin/../../lib\libc99-elf.a(strtok.DA_o)
                              build/default/debug/WINC1500/Driver/wf_utils.o (_strtok)
c:/spb_data/bin/bin/../../lib\libc99-elf.a(vfprintf.DA_o)
                              c:/spb_data/bin/bin/../../lib\libc99-elf.a(printf.DA_o) (_vfprintf)
c:/spb_data/bin/bin/../../lib\libc99-elf.a(__fmt_d.DA_o)
                              c:/spb_data/bin/bin/../../lib\libc99-elf.a(__sio_printf_dosux.DA_o) (___fmt_d_needed)
c:/spb_data/bin/bin/../../lib\libc99-elf.a(__fmt_o.DA_o)
                              c:/spb_data/bin/bin/../../lib\libc99-elf.a(__sio_printf_dosux.DA_o) (___fmt_o_needed)
c:/spb_data/bin/bin/../../lib\libc99-elf.a(__fmt_s.DA_o)
                              c:/spb_data/bin/bin/../../lib\libc99-elf.a(__sio_printf_dosux.DA_o) (___fmt_s_needed)
c:/spb_data/bin/bin/../../lib\libc99-elf.a(__fmt_u.DA_o)
                              c:/spb_data/bin/bin/../../lib\libc99-elf.a(__fmt_d.DA_o) (___cvt_u)
c:/spb_data/bin/bin/../../lib\libc99-elf.a(__fmt_x.DA_o)
                              c:/spb_data/bin/bin/../../lib\libc99-elf.a(__sio_printf_dosux.DA_o) (___fmt_x_needed)
c:/spb_data/bin/bin/../../lib\libc99-elf.a(__int_vfprintf.DA_o)
                              c:/spb_data/bin/bin/../../lib\libc99-elf.a(__sio_printf_0.DA_o) (___vfprintf)
c:/spb_data/bin/bin/../../lib\libc99-elf.a(__int_vsprintf.DA_o)
                              c:/spb_data/bin/bin/../../lib\libc99-elf.a(__sio_sprintf_doux.DA_o) (___vsprintf)
c:/spb_data/bin/bin/../../lib\libc99-elf.a(__io_fmt_needed.DA_o)
                              c:/spb_data/bin/bin/../../lib\libc99-elf.a(vfprintf.DA_o) (___io_fmt_needed)
c:/spb_data/bin/bin/../../lib\libc99-elf.a(__io_init_needed.DA_o)
                              c:/spb_data/bin/bin/../../lib\libc99-elf.a(stdout.DA_o) (___io_init_needed)
c:/spb_data/bin/bin/../../lib\libc99-elf.a(__out.DA_o)
                              c:/spb_data/bin/bin/../../lib\libc99-elf.a(stdout.DA_o) (___stdio_write_unbuffered)
c:/spb_data/bin/bin/../../lib\libc99-elf.a(__pop_float.DA_o)
                              c:/spb_data/bin/bin/../../lib\libc99-elf.a(__io_fmt_needed.DA_o) (___pop_float_needed)
c:/spb_data/bin/bin/../../lib\libc99-elf.a(__pop_int.DA_o)
                              c:/spb_data/bin/bin/../../lib\libc99-elf.a(__sio_printf_dosux.DA_o) (___pop_int_needed)
c:/spb_data/bin/bin/../../lib\libc99-elf.a(__pop_ptr.DA_o)
                              c:/spb_data/bin/bin/../../lib\libc99-elf.a(__sio_printf_dosux.DA_o) (___pop_ptr_needed)
c:/spb_data/bin/bin/../../lib\libc99-elf.a(__printf_core.DA_o)
                              c:/spb_data/bin/bin/../../lib\libc99-elf.a(__fmt_d.DA_o) (___pad)
c:/spb_data/bin/bin/../../lib\libc99-elf.a(__stdio_close.DA_o)
                              c:/spb_data/bin/bin/../../lib\libc99-elf.a(stdout.DA_o) (___stdio_close_rw)
c:/spb_data/bin/bin/../../lib\libc99-elf.a(fputs.DA_o)
                              c:/spb_data/bin/bin/../../lib\libc99-elf.a(puts.DA_o) (_fputs)
c:/spb_data/bin/bin/../../lib\libc99-elf.a(fwrite.DA_o)
                              c:/spb_data/bin/bin/../../lib\libc99-elf.a(fputs.DA_o) (_fwrite)
c:/spb_data/bin/bin/../../lib\libc99-elf.a(lseek.DA_o)
                              c:/spb_data/bin/bin/../../lib\libc99-elf.a(__stdio_close.DA_o) (_lseek)
c:/spb_data/bin/bin/../../lib\libc99-elf.a(putc.DA_o)
                              c:/spb_data/bin/bin/../../lib\libc99-elf.a(puts.DA_o) (_putc_unlocked)
c:/spb_data/bin/bin/../../lib\libc99-elf.a(stpcpy.DA_o)
                              c:/spb_data/bin/bin/../../lib\libc99-elf.a(strcpy.DA_o) (___stpcpy)
c:/spb_data/bin/bin/../../lib\libc99-elf.a(strcspn.DA_o)
                              c:/spb_data/bin/bin/../../lib\libc99-elf.a(strtok.DA_o) (_strcspn)
c:/spb_data/bin/bin/../../lib\libc99-elf.a(strspn.DA_o)
                              c:/spb_data/bin/bin/../../lib\libc99-elf.a(strtok.DA_o) (_strspn)
c:/spb_data/bin/bin/../../lib\libc99-elf.a(syscall_ret.DA_o)
                              c:/spb_data/bin/bin/../../lib\libc99-elf.a(lseek.DA_o) (___syscall_ret)
c:/spb_data/bin/bin/../../lib\libc99-elf.a(tolower.DA_o)
                              c:/spb_data/bin/bin/../../lib\libc99-elf.a(__printf_core.DA_o) (_tolower)
c:/spb_data/bin/bin/../../lib\libc99-elf.a(toupper.DA_o)
                              c:/spb_data/bin/bin/../../lib\libc99-elf.a(__fmt_x.DA_o) (_toupper)
c:/spb_data/bin/bin/../../lib\libc99-elf.a(__errno_location.DA_o)
                              c:/spb_data/bin/bin/../../lib\libc99-elf.a(__printf_core.DA_o) (___errno_val)
c:/spb_data/bin/bin/../../lib\libc99-elf.a(__fmt_a.DA_o)
                              c:/spb_data/bin/bin/../../lib\libc99-elf.a(__io_fmt_needed.DA_o) (___fmt_a_needed)
c:/spb_data/bin/bin/../../lib\libc99-elf.a(__fmt_fp.DA_o)
                              c:/spb_data/bin/bin/../../lib\libc99-elf.a(__io_fmt_needed.DA_o) (___fmt_f_needed)
c:/spb_data/bin/bin/../../lib\libc99-elf.a(__init_stdio.DA_o)
                              c:/spb_data/bin/bin/../../lib\libc99-elf.a(__io_init_needed.DA_o) (___init_stdio_needed)
c:/spb_data/bin/bin/../../lib\libc99-elf.a(__int_vsnprintf.DA_o)
                              c:/spb_data/bin/bin/../../lib\libc99-elf.a(__int_vsprintf.DA_o) (___vsnprintf)
c:/spb_data/bin/bin/../../lib\libc99-elf.a(__io_file_needed.DA_o)
                              c:/spb_data/bin/bin/../../lib\libc99-elf.a(__io_init_needed.DA_o) (___io_file_needed)
c:/spb_data/bin/bin/../../lib\libc99-elf.a(strchrnul.DA_o)
                              c:/spb_data/bin/bin/../../lib\libc99-elf.a(strcspn.DA_o) (___strchrnul)
c:/spb_data/bin/bin/../../lib\libc99-pic30-elf.a(deqltle.DA_o)
                              c:/spb_data/bin/bin/../../lib\libc99-elf.a(__fmt_a.DA_o) (___eqdf2)
c:/spb_data/bin/bin/../../lib\libc99-pic30-elf.a(dgtge.DA_o)
                              c:/spb_data/bin/bin/../../lib\libc99-elf.a(__fmt_fp.DA_o) (___gedf2)
c:/spb_data/bin/bin/../../lib\libc99-pic30-elf.a(extendsfdf.DA_o)
                              c:/spb_data/bin/bin/../../lib\libc99-elf.a(__pop_float.DA_o) (___extendsfdf2)
c:/spb_data/bin/bin/../../lib\libc99-pic30-elf.a(fixdfsi.DA_o)
                              c:/spb_data/bin/bin/../../lib\libc99-elf.a(__fmt_a.DA_o) (_(float, int, long long, double, float, short, int))
c:/spb_data/bin/bin/../../lib\libc99-pic30-elf.a(funpack.DA_o)
                              c:/spb_data/bin/bin/../../lib\libc99-pic30-elf.a(extendsfdf.DA_o) (__funpack)
c:/spb_data/bin/bin/../../lib\libc99-pic30-elf.a(mulsi3.DA_o)
                              c:/spb_data/bin/bin/../../lib\libc99-elf.a(memset.DA_o) (___mulsi3)
c:/spb_data/bin/bin/../../lib\libc99-pic30-elf.a(dpadd.DA_o)
                              c:/spb_data/bin/bin/../../lib\libc99-elf.a(__fmt_a.DA_o) (___adddf3)
c:/spb_data/bin/bin/../../lib\libc99-pic30-elf.a(dpdiv.DA_o)
                              c:/spb_data/bin/bin/../../lib\libc99-elf.a(__fmt_a.DA_o) (___divdf3)
c:/spb_data/bin/bin/../../lib\libc99-pic30-elf.a(dpmul.DA_o)
                              c:/spb_data/bin/bin/../../lib\libc99-elf.a(__fmt_a.DA_o) (___muldf3)
c:/spb_data/bin/bin/../../lib\libc99-pic30-elf.a(dpsubs.DA_o)
                              c:/spb_data/bin/bin/../../lib\libc99-pic30-elf.a(dpmul.DA_o) (__dnsrnd)
c:/spb_data/bin/bin/../../lib\libc99-pic30-elf.a(divmoddi3.DA_o)
                              c:/spb_data/bin/bin/../../lib\libc99-elf.a(__fmt_u.DA_o) (___udivdi3)
c:/spb_data/bin/bin/../../lib\libc99-pic30-elf.a(dcompare.DA_o)
                              c:/spb_data/bin/bin/../../lib\libc99-pic30-elf.a(deqltle.DA_o) (__dcompare)
c:/spb_data/bin/bin/../../lib\libc99-pic30-elf.a(dtype.DA_o)
                              c:/spb_data/bin/bin/../../lib\libc99-pic30-elf.a(dcompare.DA_o) (__dtype)
c:/spb_data/bin/bin/../../lib\libc99-pic30-elf.a(dunpack.DA_o)
                              c:/spb_data/bin/bin/../../lib\libc99-pic30-elf.a(fixdfsi.DA_o) (__dunpack)
c:/spb_data/bin/bin/../../lib\libc99-pic30-elf.a(dunpack2.DA_o)
                              c:/spb_data/bin/bin/../../lib\libc99-pic30-elf.a(fixdfsi.DA_o) (__dunpack2exit)
c:/spb_data/bin/bin/../../lib\libc99-pic30-elf.a(dpropagateNaN.DA_o)
                              c:/spb_data/bin/bin/../../lib\libc99-pic30-elf.a(dunpack2.DA_o) (__dPropagateNaN)
c:/spb_data/bin/bin/../../lib\libm-elf.a(floorl.DA_o)
                              c:/spb_data/bin/bin/../../lib\libc99-elf.a(__fmt_a.DA_o) (_floorl)


Selected CodeGuard Options:
  FSEC:BWRP:OFF
  FSEC:BSS:DISABLED
  FSEC:BSEN:OFF
  FSEC:GWRP:OFF
  FSEC:GSS:DISABLED
  FSEC:CWRP:OFF
  FSEC:CSS:DISABLED
  FSEC:AIVTDIS:OFF

CodeGuard FLASH Memory:
  boot    (none)
  secure  (none)
  general 0x100 to 0x15efe

CodeGuard RAM Memory:
  general 0x800 to 0x47ff
  secure  (none)
  boot    (none)


xc16-ld 2.10 (B)

Default Code Model: Small
Default Data Model: Large
Default Scalar Model: Small

"program" Memory  [Origin = 0x100, Length = 0x15e00]

section                    address   length (PC units)   length (bytes) (dec)
-------                    -------   -----------------   --------------------
.text                        0x100              0x27de          0x3bcd  (15309)
.const                      0x28de               0xcfc          0x137a  (4986)
.text                       0x35da              0x5636          0x8151  (33105)
.dinit                      0x8c10               0x184           0x246  (582)
.text                       0x8d94               0x7ea           0xbdf  (3039)

                 Total "program" memory used (bytes):         0xdebd  (57021) 42%


"data" Memory  [Origin = 0x800, Length = 0x4000]

section                    address      alignment gaps    total length  (dec)
-------                    -------      --------------    -------------------
.nbss                        0x800                   0            0x4a  (74)
.ndata                       0x84a                   0             0x2  (2)
.nbss                        0x84c                   0             0x8  (8)
.ndata                       0x854                   0             0x4  (4)
.bss                         0x858                   0            0xc8  (200)
.data                        0x920                   0            0x9e  (158)
.bss                         0x9be                   0            0x64  (100)
.data                        0xa22                   0            0x42  (66)
.bss                         0xa64                   0            0x20  (32)
.data                        0xa84                   0            0x1e  (30)
.bss                         0xaa2                   0            0x12  (18)
.data                        0xab4                   0            0x20  (32)
.bss                         0xad4                   0            0x1c  (28)

                 Total "data" memory used (bytes):          0x2f0  (752) 4%


Dynamic Memory Usage

region                     address                      maximum length  (dec)
------                     -------                      ---------------------
heap                             0                                   0  (0)
stack                        0xaf0                              0x3d10  (15632)

                 Maximum dynamic memory (bytes):         0x3d10  (15632)

Info: Project is using a large data memory model when small data memory model is sufficient.


External Symbols in Data Memory (by address):

                    0x082a                  _gpfAppWifiCb
                    0x082c                  _gpfAppSocketCb
                    0x082e                  _gpfAppResolveCb
                    0x0830                  _pfSigmaCb
                    0x0832                  _pfHifCb
                    0x0834                  _pfCryptoCb
                    0x083e                  _g_sessionId
                    0x0840                  _g_socketInit
                    0x0846                  _colstart
                    0x0847                  _rowstart
                    0x0848                  __tft_type
                    0x084c                  _temp
                    0x0850                  _g_appState
                    0x0852                  _k
                    0x0854                  _txt
                    0x0856                  _wrap
                    0x0858                  _g_sockets
                    0x08dc                  _g_socketEventData
                    0x0a22                  __stdout
                    0x0a24                  ___stdout_used
                    0x0ad4                  _g_hifContext
                    0x0aee                  ___errno_val

External Symbols in Data Memory (by name):

                    0x0aee                  ___errno_val
                    0x0a24                  ___stdout_used
                    0x0a22                  __stdout
                    0x0848                  __tft_type
                    0x0846                  _colstart
                    0x0850                  _g_appState
                    0x0ad4                  _g_hifContext
                    0x083e                  _g_sessionId
                    0x08dc                  _g_socketEventData
                    0x0840                  _g_socketInit
                    0x0858                  _g_sockets
                    0x082e                  _gpfAppResolveCb
                    0x082c                  _gpfAppSocketCb
                    0x082a                  _gpfAppWifiCb
                    0x0852                  _k
                    0x0834                  _pfCryptoCb
                    0x0832                  _pfHifCb
                    0x0830                  _pfSigmaCb
                    0x0847                  _rowstart
                    0x084c                  _temp
                    0x0854                  _txt
                    0x0856                  _wrap

External Symbols in Program Memory (by address):

                  0x000100                  __resetPRI
                  0x00013c                  __psv_init
                  0x000152                  __data_init
                  0x000152                  __data_init_da
                  0x000214                  __INT3Interrupt
                  0x000232                  __MI2C1Interrupt
                  0x000482                  __IOCInterrupt
                  0x000496                  __T1Interrupt
                  0x0004c4                  __OscillatorFail
                  0x0004e4                  __StackError
                  0x000506                  __AddressError
                  0x000526                  __MathError
                  0x000546                  __NVMError
                  0x000566                  __DefaultInterrupt
                  0x00056a                  _write
                  0x0005b2                  ___umodsi3
                  0x0005b8                  ___udivsi3
                  0x0005e8                  ___sio_printf_0
                  0x0005fa                  ___sio_printf_dosux
                  0x000618                  ___sio_printf_doux
                  0x000636                  ___sio_printf_s
                  0x000644                  ___sio_sprintf_doux
                  0x000666                  _atoi
                  0x0006b2                  _memcpy
                  0x0006c0                  _memset
                  0x000788                  _printf
                  0x000798                  _puts
                  0x0007b8                  ___init_stdout
                  0x0007c0                  _strcpy
                  0x0007ce                  _strlen
                  0x0007fe                  _strtok
                  0x000838                  _vfprintf
                  0x000854                  ___fmt_d
                  0x000906                  ___fmt_o
                  0x000970                  ___fmt_s
                  0x0009c4                  ___cvt_u
                  0x000a6a                  ___fmt_u
                  0x000abc                  ___fmt_x
                  0x000c06                  ___vfprintf
                  0x000c22                  ___vsprintf
                  0x000c54                  ___out
                  0x000c64                  ___pop_float
                  0x000ca2                  ___pop_int
                  0x000d4a                  ___pop_ptr
                  0x000de0                  ___pad
                  0x000e5a                  ___fmt_state
                  0x00115e                  ___printf_core
                  0x00119e                  ___stdio_close
                  0x0011dc                  ___stdio_close_rw
                  0x001234                  _fputs
                  0x001260                  _fwrite
                  0x00128c                  ___lseek
                  0x001298                  ___putc_unbuffered
                  0x0012c6                  _putc
                  0x0012c8                  ___stpcpy
                  0x001308                  _strcspn
                  0x001370                  _strspn
                  0x0013d6                  ___syscall_ret
                  0x0013ea                  _tolower
                  0x0013f6                  ___tolower_l
                  0x0013f8                  _toupper
                  0x001404                  ___toupper_l
                  0x001408                  ___fmt_a
                  0x00194e                  ___fmt_fp
                  0x001f06                  ___init_stdio
                  0x001f0c                  ___vsnprintf
                  0x001f56                  ___strchrnul
                  0x001fae                  ___ltdf2
                  0x001fae                  ___ledf2
                  0x001fae                  ___eqdf2
                  0x001fb8                  ___gedf2
                  0x001fb8                  ___gtdf2
                  0x001fc2                  ___extendsfdf2
                  0x002000                  ___fixdfsi
                  0x002058                  __funpack
                  0x002082                  ___mulp32eds3
                  0x002082                  ___mulsi3
                  0x002082                  ___mulp32peds3
                  0x00208e                  ___subdf3
                  0x00209a                  ___adddf3
                  0x002130                  ___divdf3
                  0x00228e                  ___muldf3
                  0x0023c2                  __dxchg
                  0x0023d0                  __drshft
                  0x00242a                  __dupchk
                  0x00248c                  __drndex
                  0x002496                  __dnsrnd
                  0x0024c2                  __dpakex
                  0x00251c                  ___udivmoddi3
                  0x002602                  ___udivdi3
                  0x002610                  ___umoddi3
                  0x002618                  ___divdi3
                  0x002678                  ___moddi3
                  0x0026d4                  __dcompare
                  0x002726                  __dtype
                  0x00274a                  __dunpack
                  0x002798                  __dunpack2
                  0x0027ba                  __dreturnNaN
                  0x0027c0                  __dunpack2exit
                  0x0027ca                  __dPropagateNaN
                  0x0027e6                  _floorl
                  0x002fa6                  _Font
                  0x0030a5                  _Font2
                  0x0035da                  _abs
                  0x0035ee                  _spiwrite
                  0x00361a                  _write_command
                  0x00362c                  _write_data
                  0x00363e                  _Bcmd
                  0x003794                  _Rcmd1
                  0x003846                  _Rcmd2green
                  0x003874                  _Rcmd2red
                  0x0038a2                  _Rcmd3
                  0x003940                  _setAddrWindow
                  0x00398e                  _drawPixel
                  0x0039ce                  _fillRectangle
                  0x003a7e                  _fillScreen
                  0x003a92                  _drawFastVLine
                  0x003b10                  _drawFastHLine
                  0x003b8e                  _drawCircle
                  0x003cee                  _drawCircleHelper
                  0x003e32                  _fillCircleHelper
                  0x003f44                  _fillCircle
                  0x003f7a                  _drawRect
                  0x003fbe                  _drawLine
                  0x0040a4                  _fillRect
                  0x0040d8                  _drawRoundRect
                  0x0041ee                  _fillRoundRect
                  0x004284                  _drawTriangle
                  0x0042bc                  _fillTriangle
                  0x0044d2                  _drawChar
                  0x00460e                  _setTextWrap
                  0x00461a                  _drawtext
                  0x0046c4                  _invertDisplay
                  0x0046dc                  _setScrollDefinition
                  0x004758                  _VerticalScroll
                  0x00476c                  _NormalDisplay
                  0x004776                  _Color565
                  0x004798                  _pushColor
                  0x0047b8                  _TFT_BlackTab_Initialize
                  0x004af8                  _WifiInternalEventHandler
                  0x004c88                  _m2m_wifi_init
                  0x004c90                  _m2m_wifi_deinit
                  0x004c9c                  _m2m_wifi_task
                  0x004cac                  _m2m_wifi_default_connect
                  0x004cc2                  _m2m_wifi_connect
                  0x004ce0                  _m2m_wifi_connect_sc
                  0x004cfe                  _nm_get_firmware_full_info
                  0x004e38                  _m2m_wifi_send_crl
                  0x004e52                  _nm_drv_deinit
                  0x004f40                  _m2m_wifi_disconnect
                  0x004f56                  _m2m_wifi_set_mac_address
                  0x004f76                  _m2m_wifi_set_static_ip
                  0x004f90                  _m2m_wifi_set_lsn_int
                  0x004fb2                  _m2m_wifi_set_cust_InfoElement
                  0x004ff6                  _m2m_wifi_set_scan_options
                  0x005020                  _m2m_wifi_set_scan_region
                  0x00505e                  _m2m_wifi_request_scan
                  0x0050a0                  _m2m_wifi_request_scan_passive
                  0x0050e8                  _m2m_wifi_req_hidden_ssid_scan
                  0x005174                  _m2m_wifi_req_scan_result
                  0x005190                  _m2m_wifi_wps
                  0x0051be                  _m2m_wifi_wps_disable
                  0x0051d4                  _m2m_wifi_p2p
                  0x00520a                  _m2m_wifi_p2p_disconnect
                  0x005220                  _m2m_wifi_enable_ap
                  0x00524c                  _m2m_wifi_disable_ap
                  0x005262                  _m2m_wifi_req_curr_rssi
                  0x005278                  _m2m_wifi_get_otp_mac_address
                  0x00530e                  _m2m_wifi_get_mac_address
                  0x00531e                  _m2m_wifi_set_sleep_mode
                  0x005344                  _m2m_wifi_request_sleep
                  0x00537a                  _m2m_wifi_set_device_name
                  0x0053b8                  _nm_get_firmware_info
                  0x0053ec                  _m2m_wifi_start_provision_mode
                  0x005452                  _m2m_wifi_stop_provision_mode
                  0x005468                  _m2m_wifi_get_connection_info
                  0x00547e                  _m2m_wifi_set_sytem_time
                  0x005498                  _m2m_wifi_get_sytem_time
                  0x0054ae                  _m2m_wifi_enable_sntp
                  0x0054d4                  _m2m_wifi_set_power_profile
                  0x0054f0                  _m2m_wifi_set_tx_power
                  0x00550c                  _m2m_wifi_enable_firmware_log
                  0x005528                  _m2m_wifi_set_battery_voltage
                  0x005546                  _m2m_wifi_prng_get_random_bytes
                  0x00557c                  _m2m_wifi_get_wifi_event_data
                  0x005584                  _GenerateErrorEvent
                  0x005590                  _nm_drv_init_download_mode
                  0x005854                  _m2m_wifi_get_socket_event_data
                  0x00585c                  _ReadSocketData
                  0x00597e                  _SocketInternalEventHandler
                  0x005c64                  _SocketInit
                  0x005c7e                  _socket
                  0x005d3a                  _bind
                  0x005db2                  _listen
                  0x005e14                  _accept
                  0x005e44                  _connect
                  0x005ef0                  _send
                  0x005fb0                  _sendto
                  0x006066                  _recv
                  0x00615c                  _close
                  0x00620c                  _recvfrom
                  0x006302                  _gethostbyname
                  0x006344                  _setsockopt
                  0x0063d2                  _getsockopt
                  0x0063e4                  _m2m_ping_req
                  0x0065a4                  _sslEnableCertExpirationCheck
                  0x0065c6                  _nm_spi_init
                  0x00665e                  _spi_write_reg
                  0x0066e8                  _nm_spi_reset
                  0x0066fe                  _spi_write_block
                  0x006712                  _spi_read_reg
                  0x00690c                  _nm_spi_deinit
                  0x006914                  _nm_spi_read_reg
                  0x006928                  _nm_spi_write_reg
                  0x00693c                  _spi_read_block
                  0x006f12                  _nm_read_reg
                  0x006f26                  _nm_write_reg
                  0x006f3a                  _nm_read_block
                  0x006fac                  _nm_write_block
                  0x00701e                  _spi_flash_enable
                  0x007188                  _spi_flash_read
                  0x007208                  _spi_flash_write
                  0x007336                  _spi_flash_erase
                  0x0073ca                  _spi_flash_get_size
                  0x007910                  _m2m_EintHandler
                  0x007942                  _hif_chip_wake
                  0x007970                  _hif_set_sleep_mode
                  0x00797c                  _hif_get_sleep_mode
                  0x007986                  _m2m_wifi_get_sleep_mode
                  0x007990                  _hif_chip_sleep_sc
                  0x0079a8                  _hif_chip_sleep
                  0x0079d2                  _hif_init
                  0x0079e2                  _hif_deinit
                  0x0079f2                  _hif_send
                  0x007d6e                  _hif_handle_isr
                  0x007d88                  _hif_receive
                  0x007e50                  _hif_register_cb
                  0x007ec2                  _testlines
                  0x007fe2                  _testfastlines
                  0x008030                  _testdrawrects
                  0x008076                  _testfillrects
                  0x0080e4                  _testfillcircles
                  0x008130                  _testdrawcircles
                  0x008180                  _testroundrects
                  0x0081f2                  _testtriangles
                  0x008252                  _mediabuttons
                  0x0082ec                  _main
                  0x008428                  _ChipApplyConfig
                  0x00846c                  _EnableInterrupts
                  0x008498                  _GetChipId
                  0x008566                  _nmi_get_rfrevid
                  0x008572                  _ChipSleep
                  0x008612                  _ChipWake
                  0x0086d0                  _ChipReset
                  0x0086e2                  _ChipHalt
                  0x008754                  _ChipResetAndCpuHalt
                  0x008760                  _ChipDeinit
                  0x008796                  _GetMacAddress
                  0x0088e8                  _ApplicationTask
                  0x008980                  build/default/debug/WINC1500/Example/winc1500_provision_http.o:_wifi_cb
                  0x008a34                  _I2C1_Initialize
                  0x008a6a                  _I2C1_ErrorCountGet
                  0x008ab4                  _I2C1_MasterWrite
                  0x008ae6                  _I2C1_MasterRead
                  0x008b18                  _I2C1_MasterTRBInsert
                  0x008b90                  _I2C1_MasterReadTRBBuild
                  0x008bc0                  _I2C1_MasterWriteTRBBuild
                  0x008be4                  _I2C1_MasterQueueIsEmpty
                  0x008bfa                  _I2C1_MasterQueueIsFull
                  0x008d94                  _m2mStub_PinSet_CE
                  0x008da8                  _m2mStub_PinSet_RESET
                  0x008dbc                  _m2mStub_PinSet_SPI_SS
                  0x008dd0                  _m2mStub_GetOneMsTimer
                  0x008dd8                  _m2mStub_EintEnable
                  0x008de0                  _m2mStub_EintDisable
                  0x008de8                  _m2mStub_SpiTxRx
                  0x008e5e                  _spi1_open
                  0x008eb4                  _SpiInit
                  0x008ebe                  _m2m_wifi_console_write_data
                  0x008ee2                  _m2m_wifi_console_read_data
                  0x008eec                  _m2m_wifi_console_is_read_data
                  0x008f00                  _SPI1_Initialize
                  0x008f1a                  _SPI1_Exchange
                  0x008f4a                  _SPI1_ExchangeBuffer
                  0x009014                  _SPI1_Exchange8bit
                  0x009024                  _SPI1_Exchange8bitBuffer
                  0x009038                  _SPI1_StatusGet
                  0x009040                  _m2m_error_handle_events
                  0x009054                  _registerWifiCallback
                  0x009060                  _registerSocketCallback
                  0x009072                  _m2m_wifi_handle_events
                  0x009096                  _isDriverInitComplete
                  0x0090a6                  _m2m_socket_handle_events
                  0x00913a                  _m2m_ota_handle_events
                  0x009156                  _DelayMs
                  0x00917c                  _inet_ntop4
                  0x0091b6                  _inet_pton4
                  0x00922e                  _m2m_get_elapsed_time
                  0x009266                  _m2m_wifi_get_ota_event_data
                  0x00926e                  _OtaInternalEventHandler
                  0x0092b4                  _m2m_ota_start_update
                  0x0092d4                  _m2m_ota_rollback
                  0x0092ea                  _m2m_ota_abort
                  0x009300                  _m2m_ota_switch_firmware
                  0x009316                  _nm_get_ota_firmware_info
                  0x009328                  _GetOneMsCounter
                  0x00933a                  _TMR1_Initialize
                  0x009354                  _TMR1_Period16BitSet
                  0x009366                  _TMR1_Period16BitGet
                  0x00936e                  _TMR1_Counter16BitSet
                  0x009380                  _TMR1_Counter16BitGet
                  0x00939a                  _TMR1_Start
                  0x0093aa                  _TMR1_Stop
                  0x0093b4                  _TMR1_GetElapsedThenClear
                  0x0093cc                  _TMR1_SoftwareCounterGet
                  0x0093d8                  _TMR1_SoftwareCounterClear
                  0x0093e4                  _PIN_MANAGER_Initialize
                  0x009466                  _UART2_Initialize
                  0x00947c                  _UART2_Read
                  0x00949a                  _UART2_Write
                  0x0094b2                  _UART2_StatusGet
                  0x0094ba                  _CLOCK_Initialize
                  0x009500                  _INTERRUPT_Initialize
                  0x00952e                  _BspInit
                  0x009544                  _ToggleLed
                  0x009564                  _SYSTEM_Initialize
                  0x009572                  _EXT_INT_Initialize
                  0x015f00                  __FSEC.sec

External Symbols in Program Memory (by name):

                  0x0088e8                  _ApplicationTask
                  0x00363e                  _Bcmd
                  0x00952e                  _BspInit
                  0x0094ba                  _CLOCK_Initialize
                  0x008428                  _ChipApplyConfig
                  0x008760                  _ChipDeinit
                  0x0086e2                  _ChipHalt
                  0x0086d0                  _ChipReset
                  0x008754                  _ChipResetAndCpuHalt
                  0x008572                  _ChipSleep
                  0x008612                  _ChipWake
                  0x004776                  _Color565
                  0x009156                  _DelayMs
                  0x009572                  _EXT_INT_Initialize
                  0x00846c                  _EnableInterrupts
                  0x002fa6                  _Font
                  0x0030a5                  _Font2
                  0x005584                  _GenerateErrorEvent
                  0x008498                  _GetChipId
                  0x008796                  _GetMacAddress
                  0x009328                  _GetOneMsCounter
                  0x008a6a                  _I2C1_ErrorCountGet
                  0x008a34                  _I2C1_Initialize
                  0x008be4                  _I2C1_MasterQueueIsEmpty
                  0x008bfa                  _I2C1_MasterQueueIsFull
                  0x008ae6                  _I2C1_MasterRead
                  0x008b90                  _I2C1_MasterReadTRBBuild
                  0x008b18                  _I2C1_MasterTRBInsert
                  0x008ab4                  _I2C1_MasterWrite
                  0x008bc0                  _I2C1_MasterWriteTRBBuild
                  0x009500                  _INTERRUPT_Initialize
                  0x00476c                  _NormalDisplay
                  0x00926e                  _OtaInternalEventHandler
                  0x0093e4                  _PIN_MANAGER_Initialize
                  0x003794                  _Rcmd1
                  0x003846                  _Rcmd2green
                  0x003874                  _Rcmd2red
                  0x0038a2                  _Rcmd3
                  0x00585c                  _ReadSocketData
                  0x008f1a                  _SPI1_Exchange
                  0x009014                  _SPI1_Exchange8bit
                  0x009024                  _SPI1_Exchange8bitBuffer
                  0x008f4a                  _SPI1_ExchangeBuffer
                  0x008f00                  _SPI1_Initialize
                  0x009038                  _SPI1_StatusGet
                  0x009564                  _SYSTEM_Initialize
                  0x005c64                  _SocketInit
                  0x00597e                  _SocketInternalEventHandler
                  0x008eb4                  _SpiInit
                  0x0047b8                  _TFT_BlackTab_Initialize
                  0x009380                  _TMR1_Counter16BitGet
                  0x00936e                  _TMR1_Counter16BitSet
                  0x0093b4                  _TMR1_GetElapsedThenClear
                  0x00933a                  _TMR1_Initialize
                  0x009366                  _TMR1_Period16BitGet
                  0x009354                  _TMR1_Period16BitSet
                  0x0093d8                  _TMR1_SoftwareCounterClear
                  0x0093cc                  _TMR1_SoftwareCounterGet
                  0x00939a                  _TMR1_Start
                  0x0093aa                  _TMR1_Stop
                  0x009544                  _ToggleLed
                  0x009466                  _UART2_Initialize
                  0x00947c                  _UART2_Read
                  0x0094b2                  _UART2_StatusGet
                  0x00949a                  _UART2_Write
                  0x004758                  _VerticalScroll
                  0x004af8                  _WifiInternalEventHandler
                  0x000506                  __AddressError
                  0x000566                  __DefaultInterrupt
                  0x015f00                  __FSEC.sec
                  0x000214                  __INT3Interrupt
                  0x000482                  __IOCInterrupt
                  0x000232                  __MI2C1Interrupt
                  0x000526                  __MathError
                  0x000546                  __NVMError
                  0x0004c4                  __OscillatorFail
                  0x0004e4                  __StackError
                  0x000496                  __T1Interrupt
                  0x00209a                  ___adddf3
                  0x0009c4                  ___cvt_u
                  0x002130                  ___divdf3
                  0x002618                  ___divdi3
                  0x001fae                  ___eqdf2
                  0x001fc2                  ___extendsfdf2
                  0x002000                  ___fixdfsi
                  0x001408                  ___fmt_a
                  0x000854                  ___fmt_d
                  0x00194e                  ___fmt_fp
                  0x000906                  ___fmt_o
                  0x000970                  ___fmt_s
                  0x000e5a                  ___fmt_state
                  0x000a6a                  ___fmt_u
                  0x000abc                  ___fmt_x
                  0x001fb8                  ___gedf2
                  0x001fb8                  ___gtdf2
                  0x001f06                  ___init_stdio
                  0x0007b8                  ___init_stdout
                  0x001fae                  ___ledf2
                  0x00128c                  ___lseek
                  0x001fae                  ___ltdf2
                  0x002678                  ___moddi3
                  0x00228e                  ___muldf3
                  0x002082                  ___mulp32eds3
                  0x002082                  ___mulp32peds3
                  0x002082                  ___mulsi3
                  0x000c54                  ___out
                  0x000de0                  ___pad
                  0x000c64                  ___pop_float
                  0x000ca2                  ___pop_int
                  0x000d4a                  ___pop_ptr
                  0x00115e                  ___printf_core
                  0x001298                  ___putc_unbuffered
                  0x0005e8                  ___sio_printf_0
                  0x0005fa                  ___sio_printf_dosux
                  0x000618                  ___sio_printf_doux
                  0x000636                  ___sio_printf_s
                  0x000644                  ___sio_sprintf_doux
                  0x00119e                  ___stdio_close
                  0x0011dc                  ___stdio_close_rw
                  0x0012c8                  ___stpcpy
                  0x001f56                  ___strchrnul
                  0x00208e                  ___subdf3
                  0x0013d6                  ___syscall_ret
                  0x0013f6                  ___tolower_l
                  0x001404                  ___toupper_l
                  0x002602                  ___udivdi3
                  0x00251c                  ___udivmoddi3
                  0x0005b8                  ___udivsi3
                  0x002610                  ___umoddi3
                  0x0005b2                  ___umodsi3
                  0x000c06                  ___vfprintf
                  0x001f0c                  ___vsnprintf
                  0x000c22                  ___vsprintf
                  0x0027ca                  __dPropagateNaN
                  0x000152                  __data_init
                  0x000152                  __data_init_da
                  0x0026d4                  __dcompare
                  0x002496                  __dnsrnd
                  0x0024c2                  __dpakex
                  0x0027ba                  __dreturnNaN
                  0x00248c                  __drndex
                  0x0023d0                  __drshft
                  0x002726                  __dtype
                  0x00274a                  __dunpack
                  0x002798                  __dunpack2
                  0x0027c0                  __dunpack2exit
                  0x00242a                  __dupchk
                  0x0023c2                  __dxchg
                  0x002058                  __funpack
                  0x00013c                  __psv_init
                  0x000100                  __resetPRI
                  0x0035da                  _abs
                  0x005e14                  _accept
                  0x000666                  _atoi
                  0x005d3a                  _bind
                  0x00615c                  _close
                  0x005e44                  _connect
                  0x0044d2                  _drawChar
                  0x003b8e                  _drawCircle
                  0x003cee                  _drawCircleHelper
                  0x003b10                  _drawFastHLine
                  0x003a92                  _drawFastVLine
                  0x003fbe                  _drawLine
                  0x00398e                  _drawPixel
                  0x003f7a                  _drawRect
                  0x0040d8                  _drawRoundRect
                  0x004284                  _drawTriangle
                  0x00461a                  _drawtext
                  0x003f44                  _fillCircle
                  0x003e32                  _fillCircleHelper
                  0x0040a4                  _fillRect
                  0x0039ce                  _fillRectangle
                  0x0041ee                  _fillRoundRect
                  0x003a7e                  _fillScreen
                  0x0042bc                  _fillTriangle
                  0x0027e6                  _floorl
                  0x001234                  _fputs
                  0x001260                  _fwrite
                  0x006302                  _gethostbyname
                  0x0063d2                  _getsockopt
                  0x0079a8                  _hif_chip_sleep
                  0x007990                  _hif_chip_sleep_sc
                  0x007942                  _hif_chip_wake
                  0x0079e2                  _hif_deinit
                  0x00797c                  _hif_get_sleep_mode
                  0x007d6e                  _hif_handle_isr
                  0x0079d2                  _hif_init
                  0x007d88                  _hif_receive
                  0x007e50                  _hif_register_cb
                  0x0079f2                  _hif_send
                  0x007970                  _hif_set_sleep_mode
                  0x00917c                  _inet_ntop4
                  0x0091b6                  _inet_pton4
                  0x0046c4                  _invertDisplay
                  0x009096                  _isDriverInitComplete
                  0x005db2                  _listen
                  0x008de0                  _m2mStub_EintDisable
                  0x008dd8                  _m2mStub_EintEnable
                  0x008dd0                  _m2mStub_GetOneMsTimer
                  0x008d94                  _m2mStub_PinSet_CE
                  0x008da8                  _m2mStub_PinSet_RESET
                  0x008dbc                  _m2mStub_PinSet_SPI_SS
                  0x008de8                  _m2mStub_SpiTxRx
                  0x007910                  _m2m_EintHandler
                  0x009040                  _m2m_error_handle_events
                  0x00922e                  _m2m_get_elapsed_time
                  0x0092ea                  _m2m_ota_abort
                  0x00913a                  _m2m_ota_handle_events
                  0x0092d4                  _m2m_ota_rollback
                  0x0092b4                  _m2m_ota_start_update
                  0x009300                  _m2m_ota_switch_firmware
                  0x0063e4                  _m2m_ping_req
                  0x0090a6                  _m2m_socket_handle_events
                  0x004cc2                  _m2m_wifi_connect
                  0x004ce0                  _m2m_wifi_connect_sc
                  0x008eec                  _m2m_wifi_console_is_read_data
                  0x008ee2                  _m2m_wifi_console_read_data
                  0x008ebe                  _m2m_wifi_console_write_data
                  0x004cac                  _m2m_wifi_default_connect
                  0x004c90                  _m2m_wifi_deinit
                  0x00524c                  _m2m_wifi_disable_ap
                  0x004f40                  _m2m_wifi_disconnect
                  0x005220                  _m2m_wifi_enable_ap
                  0x00550c                  _m2m_wifi_enable_firmware_log
                  0x0054ae                  _m2m_wifi_enable_sntp
                  0x005468                  _m2m_wifi_get_connection_info
                  0x00530e                  _m2m_wifi_get_mac_address
                  0x009266                  _m2m_wifi_get_ota_event_data
                  0x005278                  _m2m_wifi_get_otp_mac_address
                  0x007986                  _m2m_wifi_get_sleep_mode
                  0x005854                  _m2m_wifi_get_socket_event_data
                  0x005498                  _m2m_wifi_get_sytem_time
                  0x00557c                  _m2m_wifi_get_wifi_event_data
                  0x009072                  _m2m_wifi_handle_events
                  0x004c88                  _m2m_wifi_init
                  0x0051d4                  _m2m_wifi_p2p
                  0x00520a                  _m2m_wifi_p2p_disconnect
                  0x005546                  _m2m_wifi_prng_get_random_bytes
                  0x005262                  _m2m_wifi_req_curr_rssi
                  0x0050e8                  _m2m_wifi_req_hidden_ssid_scan
                  0x005174                  _m2m_wifi_req_scan_result
                  0x00505e                  _m2m_wifi_request_scan
                  0x0050a0                  _m2m_wifi_request_scan_passive
                  0x005344                  _m2m_wifi_request_sleep
                  0x004e38                  _m2m_wifi_send_crl
                  0x005528                  _m2m_wifi_set_battery_voltage
                  0x004fb2                  _m2m_wifi_set_cust_InfoElement
                  0x00537a                  _m2m_wifi_set_device_name
                  0x004f90                  _m2m_wifi_set_lsn_int
                  0x004f56                  _m2m_wifi_set_mac_address
                  0x0054d4                  _m2m_wifi_set_power_profile
                  0x004ff6                  _m2m_wifi_set_scan_options
                  0x005020                  _m2m_wifi_set_scan_region
                  0x00531e                  _m2m_wifi_set_sleep_mode
                  0x004f76                  _m2m_wifi_set_static_ip
                  0x00547e                  _m2m_wifi_set_sytem_time
                  0x0054f0                  _m2m_wifi_set_tx_power
                  0x0053ec                  _m2m_wifi_start_provision_mode
                  0x005452                  _m2m_wifi_stop_provision_mode
                  0x004c9c                  _m2m_wifi_task
                  0x005190                  _m2m_wifi_wps
                  0x0051be                  _m2m_wifi_wps_disable
                  0x0082ec                  _main
                  0x008252                  _mediabuttons
                  0x0006b2                  _memcpy
                  0x0006c0                  _memset
                  0x004e52                  _nm_drv_deinit
                  0x005590                  _nm_drv_init_download_mode
                  0x004cfe                  _nm_get_firmware_full_info
                  0x0053b8                  _nm_get_firmware_info
                  0x009316                  _nm_get_ota_firmware_info
                  0x006f3a                  _nm_read_block
                  0x006f12                  _nm_read_reg
                  0x00690c                  _nm_spi_deinit
                  0x0065c6                  _nm_spi_init
                  0x006914                  _nm_spi_read_reg
                  0x0066e8                  _nm_spi_reset
                  0x006928                  _nm_spi_write_reg
                  0x006fac                  _nm_write_block
                  0x006f26                  _nm_write_reg
                  0x008566                  _nmi_get_rfrevid
                  0x000788                  _printf
                  0x004798                  _pushColor
                  0x0012c6                  _putc
                  0x000798                  _puts
                  0x006066                  _recv
                  0x00620c                  _recvfrom
                  0x009060                  _registerSocketCallback
                  0x009054                  _registerWifiCallback
                  0x005ef0                  _send
                  0x005fb0                  _sendto
                  0x003940                  _setAddrWindow
                  0x0046dc                  _setScrollDefinition
                  0x00460e                  _setTextWrap
                  0x006344                  _setsockopt
                  0x005c7e                  _socket
                  0x008e5e                  _spi1_open
                  0x00701e                  _spi_flash_enable
                  0x007336                  _spi_flash_erase
                  0x0073ca                  _spi_flash_get_size
                  0x007188                  _spi_flash_read
                  0x007208                  _spi_flash_write
                  0x00693c                  _spi_read_block
                  0x006712                  _spi_read_reg
                  0x0066fe                  _spi_write_block
                  0x00665e                  _spi_write_reg
                  0x0035ee                  _spiwrite
                  0x0065a4                  _sslEnableCertExpirationCheck
                  0x0007c0                  _strcpy
                  0x001308                  _strcspn
                  0x0007ce                  _strlen
                  0x001370                  _strspn
                  0x0007fe                  _strtok
                  0x008130                  _testdrawcircles
                  0x008030                  _testdrawrects
                  0x007fe2                  _testfastlines
                  0x0080e4                  _testfillcircles
                  0x008076                  _testfillrects
                  0x007ec2                  _testlines
                  0x008180                  _testroundrects
                  0x0081f2                  _testtriangles
                  0x0013ea                  _tolower
                  0x0013f8                  _toupper
                  0x000838                  _vfprintf
                  0x00056a                  _write
                  0x00361a                  _write_command
                  0x00362c                  _write_data
                  0x008980                  build/default/debug/WINC1500/Example/winc1500_provision_http.o:_wifi_cb

Memory Configuration

Name             Origin             Length             Attributes
data             0x000800           0x004000           a !xr
reset            0x000000           0x000004  
ivt              0x000004           0x0000fc  
program          0x000100           0x015e00           xr
FSEC             0x015f00           0x000002  
FBSLIM           0x015f10           0x000002  
FSIGN            0x015f14           0x000002  
FOSCSEL          0x015f18           0x000002  
FOSC             0x015f1c           0x000002  
FWDT             0x015f20           0x000002  
FPOR             0x015f24           0x000002  
FICD             0x015f28           0x000002  
FDEVOPT1         0x015f2c           0x000002  
*default*        0x000000           0xffffffff  

Linker script and memory map

LOAD build/default/debug/mcc_generated_files/ext_int.o
LOAD build/default/debug/mcc_generated_files/i2c1.o
LOAD build/default/debug/mcc_generated_files/interrupt_manager.o
LOAD build/default/debug/mcc_generated_files/mcc.o
LOAD build/default/debug/mcc_generated_files/pin_manager.o
LOAD build/default/debug/mcc_generated_files/tmr1.o
LOAD build/default/debug/mcc_generated_files/traps.o
LOAD build/default/debug/mcc_generated_files/uart2.o
LOAD build/default/debug/mcc_generated_files/system.o
LOAD build/default/debug/mcc_generated_files/clock.o
LOAD build/default/debug/mcc_generated_files/spi1.o
LOAD build/default/debug/WINC1500/Board_driver/wf_mcu_driver_stub.o
LOAD build/default/debug/WINC1500/Driver/wf_asic.o
LOAD build/default/debug/WINC1500/Driver/wf_hif.o
LOAD build/default/debug/WINC1500/Driver/wf_ota.o
LOAD build/default/debug/WINC1500/Driver/wf_socket.o
LOAD build/default/debug/WINC1500/Driver/wf_spi.o
LOAD build/default/debug/WINC1500/Driver/wf_spi_flash.o
LOAD build/default/debug/WINC1500/Driver/wf_utils.o
LOAD build/default/debug/WINC1500/Driver/wf_wifi.o
LOAD build/default/debug/WINC1500/Example/winc1500_fw_update_over_serial.o
LOAD build/default/debug/WINC1500/Example/winc1500_http_download.o
LOAD build/default/debug/WINC1500/Example/winc1500_locate_ip_address.o
LOAD build/default/debug/WINC1500/Example/winc1500_mac_address.o
LOAD build/default/debug/WINC1500/Example/winc1500_mode_ap.o
LOAD build/default/debug/WINC1500/Example/winc1500_mode_change.o
LOAD build/default/debug/WINC1500/Example/winc1500_mode_p2p.o
LOAD build/default/debug/WINC1500/Example/winc1500_mode_sta.o
LOAD build/default/debug/WINC1500/Example/winc1500_ota_firmware_update.o
LOAD build/default/debug/WINC1500/Example/winc1500_power_save_mode.o
LOAD build/default/debug/WINC1500/Example/winc1500_provision_http.o
LOAD build/default/debug/WINC1500/Example/winc1500_security_wep_wpa.o
LOAD build/default/debug/WINC1500/Example/winc1500_security_wps.o
LOAD build/default/debug/WINC1500/Example/winc1500_send_email.o
LOAD build/default/debug/WINC1500/Example/winc1500_signal_strength.o
LOAD build/default/debug/WINC1500/Example/winc1500_ssl_connect.o
LOAD build/default/debug/WINC1500/Example/winc1500_tcp_client.o
LOAD build/default/debug/WINC1500/Example/winc1500_tcp_server.o
LOAD build/default/debug/WINC1500/Example/winc1500_time_client.o
LOAD build/default/debug/WINC1500/Example/winc1500_weather_client.o
LOAD build/default/debug/WINC1500/Support/winc1500_support_stub.o
LOAD build/default/debug/bsp.o
LOAD build/default/debug/main.o
LOAD build/default/debug/ST7735.o
                    0x0001                  __MPLAB_BUILD = 0x1
                    0x0001                  __MPLAB_DEBUG = 0x1
                    0x0001                  __DEBUG = 0x1
                    0x0001                  __MPLAB_DEBUGGER_SIMULATOR = 0x1
LOAD pPIC24Fxxx
LOAD c:/spb_data/bin/bin/../../lib\libfx-elf.a
                    0x15f00                  __FSEC = 0x15f00
                    0x15f10                  __FBSLIM = 0x15f10
                    0x15f14                  __FSIGN = 0x15f14
                    0x15f18                  __FOSCSEL = 0x15f18
                    0x15f1c                  __FOSC = 0x15f1c
                    0x15f20                  __FWDT = 0x15f20
                    0x15f24                  __FPOR = 0x15f24
                    0x15f28                  __FICD = 0x15f28
                    0x15f2c                  __FDEVOPT1 = 0x15f2c
                    0x0100                  __CODE_BASE = 0x100
                    0x15e00                  __CODE_LENGTH = 0x15e00
                    0x0004                  __IVT_BASE = 0x4
                    0x0800                  __DATA_BASE = 0x800
                    0x4000                  __DATA_LENGTH = 0x4000

.reset            0x000000          0x4
                  0x000000          0x2 SHORT 0x100 ABSOLUTE (__reset)
                  0x000001          0x2 SHORT 0x4
                  0x000002          0x2 SHORT 0x0 ((ABSOLUTE (__reset) >> 0x10) & 0x7f)
                  0x000003          0x2 SHORT 0x0

.text             0x000100       0x27de
 *(.init)
 .init            0x000100         0x4c c:/spb_data/bin/bin/../../lib\libc99-pic30-elf.a(crt0_extended24.o)
                  0x000100                  __resetPRI
                  0x000100                  __reset
                  0x00013c                  __psv_init
 .init            0x00014c         0xb8 c:/spb_data/bin/bin/../../lib\libc99-pic30-elf.a(data_init_24.o)
                  0x000152                  __data_init
                  0x000152                  __data_init_da
 *(.user_init)
 *(.handle)
 .handle          0x000204         0x10 jump_table
 *(.isr*)
 .isr.text        0x000214         0x1e build/default/debug/mcc_generated_files/ext_int.o
                  0x000214                  __INT3Interrupt
 .isr.text        0x000232        0x250 build/default/debug/mcc_generated_files/i2c1.o
                  0x000232                  __MI2C1Interrupt
 .isr.text        0x000482         0x14 build/default/debug/mcc_generated_files/pin_manager.o
                  0x000482                  __IOCInterrupt
 .isr.text        0x000496         0x2e build/default/debug/mcc_generated_files/tmr1.o
                  0x000496                  __T1Interrupt
 .isr.text        0x0004c4         0xa2 build/default/debug/mcc_generated_files/traps.o
                  0x0004c4                  __OscillatorFail
                  0x0004e4                  __StackError
                  0x000506                  __AddressError
                  0x000526                  __MathError
                  0x000546                  __NVMError
 .isr             0x000566          0x4 default_isr
                  0x000566                  __DefaultInterrupt
 *(.libc)
 *(.libm)
 *(.libdsp)
 *(.lib*)
 .libc.write      0x00056a         0x46 build/default/debug/mcc_generated_files/uart2.o
                  0x00056a                  _write
 .libpic30_crt_start_mode
                  0x0005b0          0x2 c:/spb_data/bin/bin/../../lib\libc99-pic30-elf.a(crt_start_mode_normalda.Meo)
                  0x0005b0                  __crt_start_mode
                  0x0005b0                  __crt_start_mode_normal
 .libm.umodsi3    0x0005b2          0x6 c:/spb_data/bin/bin/../../lib\libc99-pic30-elf.a(umodsi3.DA_o)
                  0x0005b2                  ___umodsi3
 .libm.udivsi3    0x0005b8         0x20 c:/spb_data/bin/bin/../../lib\libc99-pic30-elf.a(udivsi3.DA_o)
                  0x0005b8                  ___udivsi3
 .libc.__wrap_printf
                  0x0005d8         0x10 c:/spb_data/bin/bin/../../lib\libc99-elf.a(__sio_printf_0.DA_o)
                  0x0005d8                  __printf_0
                  0x0005d8                  __dprintf_0
 .libc.__sio_printf_0
                  0x0005e8          0x2 c:/spb_data/bin/bin/../../lib\libc99-elf.a(__sio_printf_0.DA_o)
                  0x0005e8                  ___sio_printf_0
 .libc.__wrap_printf
                  0x0005ea         0x10 c:/spb_data/bin/bin/../../lib\libc99-elf.a(__sio_printf_dosux.DA_o)
                  0x0005ea                  __dprintf_cdnopsuxX
                  0x0005ea                  __printf_cdnopsuxX
 .libc.__sio_printf_dosux
                  0x0005fa          0xe c:/spb_data/bin/bin/../../lib\libc99-elf.a(__sio_printf_dosux.DA_o)
                  0x0005fa                  ___sio_printf_dosux
 .libc.__wrap_printf
                  0x000608         0x10 c:/spb_data/bin/bin/../../lib\libc99-elf.a(__sio_printf_doux.DA_o)
                  0x000608                  __printf_cdnopuxX
                  0x000608                  __dprintf_cdnopuxX
 .libc.__sio_printf_doux
                  0x000618          0xe c:/spb_data/bin/bin/../../lib\libc99-elf.a(__sio_printf_doux.DA_o)
                  0x000618                  ___sio_printf_doux
 .libc.__wrap_printf
                  0x000626         0x10 c:/spb_data/bin/bin/../../lib\libc99-elf.a(__sio_printf_s.DA_o)
                  0x000626                  __printf_s
                  0x000626                  __dprintf_s
 .libc.__sio_printf_s
                  0x000636          0x2 c:/spb_data/bin/bin/../../lib\libc99-elf.a(__sio_printf_s.DA_o)
                  0x000636                  ___sio_printf_s
 .libc.__wrap_sprintf
                  0x000638          0xc c:/spb_data/bin/bin/../../lib\libc99-elf.a(__sio_sprintf_doux.DA_o)
                  0x000638                  __sprintf_cdnopuxX
                  0x000638                  __dsprintf_cdnopuxX
 .libc.__sio_sprintf_doux
                  0x000644          0xe c:/spb_data/bin/bin/../../lib\libc99-elf.a(__sio_sprintf_doux.DA_o)
                  0x000644                  ___sio_sprintf_doux
 .libc.__isspace
                  0x000652         0x14 c:/spb_data/bin/bin/../../lib\libc99-elf.a(atoi.DA_o)
 .libc.atoi       0x000666         0x4c c:/spb_data/bin/bin/../../lib\libc99-elf.a(atoi.DA_o)
                  0x000666                  _atoi
 .libc.memcpy     0x0006b2          0xe c:/spb_data/bin/bin/../../lib\libc99-elf.a(memcpy.DA_o)
                  0x0006b2                  _memcpy
 .libc.memset     0x0006c0         0xc8 c:/spb_data/bin/bin/../../lib\libc99-elf.a(memset.DA_o)
                  0x0006c0                  _memset
 .libc.printf     0x000788         0x10 c:/spb_data/bin/bin/../../lib\libc99-elf.a(printf.DA_o)
                  0x000788                  _printf
 .libc.puts       0x000798         0x1a c:/spb_data/bin/bin/../../lib\libc99-elf.a(puts.DA_o)
                  0x000798                  _puts
 .libc.__dummy0
                  0x0007b2          0x2 c:/spb_data/bin/bin/../../lib\libc99-elf.a(stdout.DA_o)
                  0x0007b2                  ___stdio_seek
 .libc.__dummy    0x0007b4          0x4 c:/spb_data/bin/bin/../../lib\libc99-elf.a(stdout.DA_o)
                  0x0007b4                  ___get_stdout
 .libc.__init_stdout
                  0x0007b8          0x8 c:/spb_data/bin/bin/../../lib\libc99-elf.a(stdout.DA_o)
                  0x0007b8                  ___init_stdout
 .libc.strcpy     0x0007c0          0xe c:/spb_data/bin/bin/../../lib\libc99-elf.a(strcpy.DA_o)
                  0x0007c0                  _strcpy
 .libc.strlen     0x0007ce         0x30 c:/spb_data/bin/bin/../../lib\libc99-elf.a(strlen.DA_o)
                  0x0007ce                  _strlen
 .libc.strtok     0x0007fe         0x3a c:/spb_data/bin/bin/../../lib\libc99-elf.a(strtok.DA_o)
                  0x0007fe                  _strtok
 .libc.vfprintf
                  0x000838         0x1c c:/spb_data/bin/bin/../../lib\libc99-elf.a(vfprintf.DA_o)
                  0x000838                  _vfprintf
 .libc.__fmt_d    0x000854         0xb2 c:/spb_data/bin/bin/../../lib\libc99-elf.a(__fmt_d.DA_o)
                  0x000854                  ___fmt_d
                  0x000854                  ___fmt_d_needed
 .libc.__fmt_o    0x000906         0x6a c:/spb_data/bin/bin/../../lib\libc99-elf.a(__fmt_o.DA_o)
                  0x000906                  ___fmt_o
                  0x000906                  ___fmt_o_needed
 .libc.__fmt_s    0x000970         0x54 c:/spb_data/bin/bin/../../lib\libc99-elf.a(__fmt_s.DA_o)
                  0x000970                  ___fmt_0_needed
                  0x000970                  ___fmt_s_needed
                  0x000970                  ___fmt_s
 .libc.__cvt_u    0x0009c4         0xa6 c:/spb_data/bin/bin/../../lib\libc99-elf.a(__fmt_u.DA_o)
                  0x0009c4                  ___cvt_u
 .libc.__fmt_u    0x000a6a         0x52 c:/spb_data/bin/bin/../../lib\libc99-elf.a(__fmt_u.DA_o)
                  0x000a6a                  ___fmt_u
                  0x000a6a                  ___fmt_u_needed
 .libc.__fmt_x    0x000abc        0x14a c:/spb_data/bin/bin/../../lib\libc99-elf.a(__fmt_x.DA_o)
                  0x000abc                  ___fmt_x_needed
                  0x000abc                  ___fmt_x
 .libc.__vfprintf
                  0x000c06         0x1c c:/spb_data/bin/bin/../../lib\libc99-elf.a(__int_vfprintf.DA_o)
                  0x000c06                  ___vfprintf
 .libc.__vsprintf
                  0x000c22          0x8 c:/spb_data/bin/bin/../../lib\libc99-elf.a(__int_vsprintf.DA_o)
                  0x000c22                  ___vsprintf
 .libc.__string_out
                  0x000c2a         0x26 c:/spb_data/bin/bin/../../lib\libc99-elf.a(__out.DA_o)
 .libc.__fwrite_min
                  0x000c50          0x4 c:/spb_data/bin/bin/../../lib\libc99-elf.a(__out.DA_o)
                  0x000c50                  ___fwrite
                  0x000c50                  ___stdio_write
                  0x000c50                  ___stdio_write_unbuffered
 .libc.__out      0x000c54         0x10 c:/spb_data/bin/bin/../../lib\libc99-elf.a(__out.DA_o)
                  0x000c54                  ___out_needed
                  0x000c54                  ___out
 .libc.__pop_float
                  0x000c64         0x3e c:/spb_data/bin/bin/../../lib\libc99-elf.a(__pop_float.DA_o)
                  0x000c64                  ___pop_float
                  0x000c64                  ___pop_float_needed
 .libc.__pop_int
                  0x000ca2         0xa8 c:/spb_data/bin/bin/../../lib\libc99-elf.a(__pop_int.DA_o)
                  0x000ca2                  ___pop_int
                  0x000ca2                  ___pop_int_needed
 .libc.__pop_ptr
                  0x000d4a         0x70 c:/spb_data/bin/bin/../../lib\libc99-elf.a(__pop_ptr.DA_o)
                  0x000d4a                  ___pop_ptr_needed
                  0x000d4a                  ___pop_ptr
 .libc.__string_out
                  0x000dba         0x26 c:/spb_data/bin/bin/../../lib\libc99-elf.a(__printf_core.DA_o)
 .libc.__pad      0x000de0         0x74 c:/spb_data/bin/bin/../../lib\libc99-elf.a(__printf_core.DA_o)
                  0x000de0                  ___pad
 .libc.__dummy_fmt3
                  0x000e54          0x2 c:/spb_data/bin/bin/../../lib\libc99-elf.a(__printf_core.DA_o)
 .libc.__dummy_fmt4
                  0x000e56          0x2 c:/spb_data/bin/bin/../../lib\libc99-elf.a(__printf_core.DA_o)
 .libc.__dummy_fmts
                  0x000e58          0x2 c:/spb_data/bin/bin/../../lib\libc99-elf.a(__printf_core.DA_o)
 .libc.__fmt_state
                  0x000e5a         0x2c c:/spb_data/bin/bin/../../lib\libc99-elf.a(__printf_core.DA_o)
                  0x000e5a                  ___fmt_state
 .libc.vfpfcnvrt.clone.0
                  0x000e86        0x2d8 c:/spb_data/bin/bin/../../lib\libc99-elf.a(__printf_core.DA_o)
 .libc.__printf_core
                  0x00115e         0x40 c:/spb_data/bin/bin/../../lib\libc99-elf.a(__printf_core.DA_o)
                  0x00115e                  ___printf_core
 .libc.__stdio_close
                  0x00119e         0x3e c:/spb_data/bin/bin/../../lib\libc99-elf.a(__stdio_close.DA_o)
                  0x00119e                  ___stdio_close
 .libc.__stdio_close_rw
                  0x0011dc         0x58 c:/spb_data/bin/bin/../../lib\libc99-elf.a(__stdio_close.DA_o)
                  0x0011dc                  ___stdio_close_rw
 .libc.fputs      0x001234         0x28 c:/spb_data/bin/bin/../../lib\libc99-elf.a(fputs.DA_o)
                  0x001234                  _fputs_unlocked
                  0x001234                  _fputs
 .libc.__fwrite_min
                  0x00125c          0x4 c:/spb_data/bin/bin/../../lib\libc99-elf.a(fwrite.DA_o)
 .libc.fwrite     0x001260         0x2c c:/spb_data/bin/bin/../../lib\libc99-elf.a(fwrite.DA_o)
                  0x001260                  _fwrite
                  0x001260                  _fwrite_unlocked
 .libc.__lseek    0x00128c          0xc c:/spb_data/bin/bin/../../lib\libc99-elf.a(lseek.DA_o)
                  0x00128c                  _lseek
                  0x00128c                  ___lseek
 .libc.__putc_unbuffered
                  0x001298         0x2e c:/spb_data/bin/bin/../../lib\libc99-elf.a(putc.DA_o)
                  0x001298                  ___putc
                  0x001298                  ___putc_unbuffered
 .libc.putc       0x0012c6          0x2 c:/spb_data/bin/bin/../../lib\libc99-elf.a(putc.DA_o)
                  0x0012c6                  _putc
                  0x0012c6                  _fputc
                  0x0012c6                  _putc_unlocked
                  0x0012c6                  __IO_putc
 .libc.__stpcpy
                  0x0012c8         0x40 c:/spb_data/bin/bin/../../lib\libc99-elf.a(stpcpy.DA_o)
                  0x0012c8                  ___stpcpy
                  0x0012c8                  _stpcpy
 .libc.strcspn    0x001308         0x68 c:/spb_data/bin/bin/../../lib\libc99-elf.a(strcspn.DA_o)
                  0x001308                  _strcspn
 .libc.strspn     0x001370         0x66 c:/spb_data/bin/bin/../../lib\libc99-elf.a(strspn.DA_o)
                  0x001370                  _strspn
 .libc.__syscall_ret
                  0x0013d6         0x14 c:/spb_data/bin/bin/../../lib\libc99-elf.a(syscall_ret.DA_o)
                  0x0013d6                  ___syscall_ret
 .libc.tolower    0x0013ea          0xc c:/spb_data/bin/bin/../../lib\libc99-elf.a(tolower.DA_o)
                  0x0013ea                  _tolower
 .libc.__tolower_l
                  0x0013f6          0x2 c:/spb_data/bin/bin/../../lib\libc99-elf.a(tolower.DA_o)
                  0x0013f6                  ___tolower_l
                  0x0013f6                  _tolower_l
 .libc.toupper    0x0013f8          0xc c:/spb_data/bin/bin/../../lib\libc99-elf.a(toupper.DA_o)
                  0x0013f8                  _toupper
 .libc.__toupper_l
                  0x001404          0x2 c:/spb_data/bin/bin/../../lib\libc99-elf.a(toupper.DA_o)
                  0x001404                  ___toupper_l
                  0x001404                  _toupper_l
 .libc.__LONG_DOUBLE_BITS
                  0x001406          0x2 c:/spb_data/bin/bin/../../lib\libc99-elf.a(__fmt_a.DA_o)
 .libc.__fmt_a    0x001408        0x544 c:/spb_data/bin/bin/../../lib\libc99-elf.a(__fmt_a.DA_o)
                  0x001408                  ___fmt_a_needed
                  0x001408                  ___fmt_a
 .libc.__LONG_DOUBLE_BITS
                  0x00194c          0x2 c:/spb_data/bin/bin/../../lib\libc99-elf.a(__fmt_fp.DA_o)
 .libc.__fmt_fp
                  0x00194e        0x5b6 c:/spb_data/bin/bin/../../lib\libc99-elf.a(__fmt_fp.DA_o)
                  0x00194e                  ___fmt_f_needed
                  0x00194e                  ___fmt_fp
 .libc.__dummy    0x001f04          0x2 c:/spb_data/bin/bin/../../lib\libc99-elf.a(__init_stdio.DA_o)
                  0x001f04                  ___init_stderr
                  0x001f04                  ___init_stdin
 .libc.__init_stdio
                  0x001f06          0x6 c:/spb_data/bin/bin/../../lib\libc99-elf.a(__init_stdio.DA_o)
                  0x001f06                  ___init_stdio
                  0x001f06                  ___init_stdio_needed
 .libc.__vsnprintf
                  0x001f0c         0x4a c:/spb_data/bin/bin/../../lib\libc99-elf.a(__int_vsnprintf.DA_o)
                  0x001f0c                  ___vsnprintf
 .libc.__strchrnul
                  0x001f56         0x58 c:/spb_data/bin/bin/../../lib\libc99-elf.a(strchrnul.DA_o)
                  0x001f56                  ___strchrnul
                  0x001f56                  _strchrnul
 .libm.eqdf2      0x001fae          0xa c:/spb_data/bin/bin/../../lib\libc99-pic30-elf.a(deqltle.DA_o)
                  0x001fae                  ___eqdf2
                  0x001fae                  ___ltdf2
                  0x001fae                  ___ledf2
 .libm.gtdf2      0x001fb8          0xa c:/spb_data/bin/bin/../../lib\libc99-pic30-elf.a(dgtge.DA_o)
                  0x001fb8                  ___gtdf2
                  0x001fb8                  ___gedf2
 .libm.extendsfdf2
                  0x001fc2         0x3e c:/spb_data/bin/bin/../../lib\libc99-pic30-elf.a(extendsfdf.DA_o)
                  0x001fc2                  ___extendsfdf2
 .libm.fixdfsi    0x002000         0x58 c:/spb_data/bin/bin/../../lib\libc99-pic30-elf.a(fixdfsi.DA_o)
                  0x002000                  _(float, int, long long, double, float, short, int)
 .libm.funpack    0x002058         0x2a c:/spb_data/bin/bin/../../lib\libc99-pic30-elf.a(funpack.DA_o)
                  0x002058                  __funpack
 .libm.mulsi3     0x002082          0xc c:/spb_data/bin/bin/../../lib\libc99-pic30-elf.a(mulsi3.DA_o)
                  0x002082                  ___mulp32peds3
                  0x002082                  ___mulsi3
                  0x002082                  ___mulp32eds3
 .lib_dpfops      0x00208e         0xa2 c:/spb_data/bin/bin/../../lib\libc99-pic30-elf.a(dpadd.DA_o)
                  0x00208e                  ___subdf3
                  0x00209a                  ___adddf3
 .lib_dpfops      0x002130        0x15e c:/spb_data/bin/bin/../../lib\libc99-pic30-elf.a(dpdiv.DA_o)
                  0x002130                  ___divdf3
 .lib_dpfops      0x00228e        0x11a c:/spb_data/bin/bin/../../lib\libc99-pic30-elf.a(dpmul.DA_o)
                  0x00228e                  ___muldf3
 .lib_dpfops      0x0023a8        0x128 c:/spb_data/bin/bin/../../lib\libc99-pic30-elf.a(dpsubs.DA_o)
                  0x0023c2                  __dxchg
                  0x0023d0                  __drshft
                  0x00242a                  __dupchk
                  0x00248c                  __drndex
                  0x002496                  __dnsrnd
                  0x0024c2                  __dpakex
 .libm.__PplusBdi
                  0x0024d0         0x26 c:/spb_data/bin/bin/../../lib\libc99-pic30-elf.a(divmoddi3.DA_o)
 .libm.__PminusBdi
                  0x0024f6         0x26 c:/spb_data/bin/bin/../../lib\libc99-pic30-elf.a(divmoddi3.DA_o)
 .libm.__udivmoddi3
                  0x00251c         0xe6 c:/spb_data/bin/bin/../../lib\libc99-pic30-elf.a(divmoddi3.DA_o)
                  0x00251c                  ___udivmoddi3
 .libm.__udivdi3
                  0x002602          0xe c:/spb_data/bin/bin/../../lib\libc99-pic30-elf.a(divmoddi3.DA_o)
                  0x002602                  ___udivdi3
 .libm.__umoddi3
                  0x002610          0x8 c:/spb_data/bin/bin/../../lib\libc99-pic30-elf.a(divmoddi3.DA_o)
                  0x002610                  ___umoddi3
 .libm.__divdi3
                  0x002618         0x60 c:/spb_data/bin/bin/../../lib\libc99-pic30-elf.a(divmoddi3.DA_o)
                  0x002618                  ___divdi3
 .libm.__moddi3
                  0x002678         0x5c c:/spb_data/bin/bin/../../lib\libc99-pic30-elf.a(divmoddi3.DA_o)
                  0x002678                  ___moddi3
 .libm.dcompare
                  0x0026d4         0x52 c:/spb_data/bin/bin/../../lib\libc99-pic30-elf.a(dcompare.DA_o)
                  0x0026d4                  __dcompare
 .libm.dtype      0x002726         0x24 c:/spb_data/bin/bin/../../lib\libc99-pic30-elf.a(dtype.DA_o)
                  0x002726                  __dtype
 .libm.dunpack    0x00274a         0x4e c:/spb_data/bin/bin/../../lib\libc99-pic30-elf.a(dunpack.DA_o)
                  0x00274a                  __dunpack
 .libm.dunpack2
                  0x002798         0x32 c:/spb_data/bin/bin/../../lib\libc99-pic30-elf.a(dunpack2.DA_o)
                  0x002798                  __dunpack2
                  0x0027ba                  __dreturnNaN
                  0x0027c0                  __dunpack2exit
 .libm.dPropagateNaN
                  0x0027ca         0x1c c:/spb_data/bin/bin/../../lib\libc99-pic30-elf.a(dpropagateNaN.DA_o)
                  0x0027ca                  __dPropagateNaN
 .libc.floorl     0x0027e6         0xf8 c:/spb_data/bin/bin/../../lib\libm-elf.a(floorl.DA_o)
                  0x0027e6                  _floorl

usercode
 *(usercode)

__FSEC            0x015f00          0x2
 *(__FSEC.sec*)
 __FSEC.sec       0x015f00          0x2 /CW/_FSEC
                  0x015f00                  __FSEC.sec

__FBSLIM
 *(__FBSLIM.sec*)

__FSIGN
 *(__FSIGN.sec*)

__FOSCSEL
 *(__FOSCSEL.sec*)

__FOSC
 *(__FOSC.sec*)

__FWDT
 *(__FWDT.sec*)

__FPOR
 *(__FPOR.sec*)

__FICD
 *(__FICD.sec*)

__FDEVOPT1
 *(__FDEVOPT1.sec*)

.comment
 *(.comment)

.debug_info       0x000000      0x15c16
 *(.debug_info)
 .debug_info      0x000000        0x4f4 build/default/debug/mcc_generated_files/ext_int.o
 .debug_info      0x0004f4       0x1016 build/default/debug/mcc_generated_files/i2c1.o
 .debug_info      0x00150a        0x728 build/default/debug/mcc_generated_files/interrupt_manager.o
 .debug_info      0x001c32        0x673 build/default/debug/mcc_generated_files/pin_manager.o
 .debug_info      0x0022a5        0x988 build/default/debug/mcc_generated_files/tmr1.o
 .debug_info      0x002c2d        0x438 build/default/debug/mcc_generated_files/traps.o
 .debug_info      0x003065        0x7a9 build/default/debug/mcc_generated_files/uart2.o
 .debug_info      0x00380e        0x355 build/default/debug/mcc_generated_files/system.o
 .debug_info      0x003b63        0x37d build/default/debug/mcc_generated_files/clock.o
 .debug_info      0x003ee0        0x88d build/default/debug/mcc_generated_files/spi1.o
 .debug_info      0x00476d        0xef4 build/default/debug/WINC1500/Board_driver/wf_mcu_driver_stub.o
 .debug_info      0x005661        0x963 build/default/debug/WINC1500/Driver/wf_asic.o
 .debug_info      0x005fc4        0xd74 build/default/debug/WINC1500/Driver/wf_hif.o
 .debug_info      0x006d38        0xcb0 build/default/debug/WINC1500/Driver/wf_ota.o
 .debug_info      0x0079e8       0x21a4 build/default/debug/WINC1500/Driver/wf_socket.o
 .debug_info      0x009b8c       0x1118 build/default/debug/WINC1500/Driver/wf_spi.o
 .debug_info      0x00aca4        0xdf8 build/default/debug/WINC1500/Driver/wf_spi_flash.o
 .debug_info      0x00ba9c        0x322 build/default/debug/WINC1500/Driver/wf_utils.o
 .debug_info      0x00bdbe       0x3929 build/default/debug/WINC1500/Driver/wf_wifi.o
 .debug_info      0x00f6e7        0x181 build/default/debug/WINC1500/Example/winc1500_fw_update_over_serial.o
 .debug_info      0x00f868        0x179 build/default/debug/WINC1500/Example/winc1500_http_download.o
 .debug_info      0x00f9e1        0x17d build/default/debug/WINC1500/Example/winc1500_locate_ip_address.o
 .debug_info      0x00fb5e        0x177 build/default/debug/WINC1500/Example/winc1500_mac_address.o
 .debug_info      0x00fcd5        0x173 build/default/debug/WINC1500/Example/winc1500_mode_ap.o
 .debug_info      0x00fe48        0x177 build/default/debug/WINC1500/Example/winc1500_mode_change.o
 .debug_info      0x00ffbf        0x174 build/default/debug/WINC1500/Example/winc1500_mode_p2p.o
 .debug_info      0x010133        0x174 build/default/debug/WINC1500/Example/winc1500_mode_sta.o
 .debug_info      0x0102a7        0x17f build/default/debug/WINC1500/Example/winc1500_ota_firmware_update.o
 .debug_info      0x010426        0x17b build/default/debug/WINC1500/Example/winc1500_power_save_mode.o
 .debug_info      0x0105a1        0xf77 build/default/debug/WINC1500/Example/winc1500_provision_http.o
 .debug_info      0x011518        0x17c build/default/debug/WINC1500/Example/winc1500_security_wep_wpa.o
 .debug_info      0x011694        0x178 build/default/debug/WINC1500/Example/winc1500_security_wps.o
 .debug_info      0x01180c        0x176 build/default/debug/WINC1500/Example/winc1500_send_email.o
 .debug_info      0x011982        0x17b build/default/debug/WINC1500/Example/winc1500_signal_strength.o
 .debug_info      0x011afd        0x177 build/default/debug/WINC1500/Example/winc1500_ssl_connect.o
 .debug_info      0x011c74        0x176 build/default/debug/WINC1500/Example/winc1500_tcp_client.o
 .debug_info      0x011dea        0x176 build/default/debug/WINC1500/Example/winc1500_tcp_server.o
 .debug_info      0x011f60        0x177 build/default/debug/WINC1500/Example/winc1500_time_client.o
 .debug_info      0x0120d7        0x17a build/default/debug/WINC1500/Example/winc1500_weather_client.o
 .debug_info      0x012251       0x1358 build/default/debug/WINC1500/Support/winc1500_support_stub.o
 .debug_info      0x0135a9        0x3bf build/default/debug/bsp.o
 .debug_info      0x013968        0x4d4 build/default/debug/main.o
 .debug_info      0x013e3c       0x1406 build/default/debug/ST7735.o
 .debug_info      0x015242         0x8d c:/spb_data/bin/bin/../../lib\libc99-pic30-elf.a(umodsi3.DA_o)
 .debug_info      0x0152cf         0x8d c:/spb_data/bin/bin/../../lib\libc99-pic30-elf.a(udivsi3.DA_o)
 .debug_info      0x01535c         0x8d c:/spb_data/bin/bin/../../lib\libc99-pic30-elf.a(deqltle.DA_o)
 .debug_info      0x0153e9         0x8b c:/spb_data/bin/bin/../../lib\libc99-pic30-elf.a(dgtge.DA_o)
 .debug_info      0x015474         0x90 c:/spb_data/bin/bin/../../lib\libc99-pic30-elf.a(extendsfdf.DA_o)
 .debug_info      0x015504         0x8d c:/spb_data/bin/bin/../../lib\libc99-pic30-elf.a(fixdfsi.DA_o)
 .debug_info      0x015591         0x8d c:/spb_data/bin/bin/../../lib\libc99-pic30-elf.a(funpack.DA_o)
 .debug_info      0x01561e         0x8c c:/spb_data/bin/bin/../../lib\libc99-pic30-elf.a(mulsi3.DA_o)
 .debug_info      0x0156aa         0xa9 c:/spb_data/bin/bin/../../lib\libc99-pic30-elf.a(dpadd.DA_o)
 .debug_info      0x015753         0xa9 c:/spb_data/bin/bin/../../lib\libc99-pic30-elf.a(dpdiv.DA_o)
 .debug_info      0x0157fc         0xa9 c:/spb_data/bin/bin/../../lib\libc99-pic30-elf.a(dpmul.DA_o)
 .debug_info      0x0158a5         0xaa c:/spb_data/bin/bin/../../lib\libc99-pic30-elf.a(dpsubs.DA_o)
 .debug_info      0x01594f         0x8e c:/spb_data/bin/bin/../../lib\libc99-pic30-elf.a(dcompare.DA_o)
 .debug_info      0x0159dd         0x8b c:/spb_data/bin/bin/../../lib\libc99-pic30-elf.a(dtype.DA_o)
 .debug_info      0x015a68         0x8d c:/spb_data/bin/bin/../../lib\libc99-pic30-elf.a(dunpack.DA_o)
 .debug_info      0x015af5         0x8e c:/spb_data/bin/bin/../../lib\libc99-pic30-elf.a(dunpack2.DA_o)
 .debug_info      0x015b83         0x93 c:/spb_data/bin/bin/../../lib\libc99-pic30-elf.a(dpropagateNaN.DA_o)
 *(.gnu.linkonce.wi.*)

.debug_abbrev     0x000000       0x2397
 *(.debug_abbrev)
 .debug_abbrev    0x000000         0xbf build/default/debug/mcc_generated_files/ext_int.o
 .debug_abbrev    0x0000bf        0x232 build/default/debug/mcc_generated_files/i2c1.o
 .debug_abbrev    0x0002f1         0xb4 build/default/debug/mcc_generated_files/interrupt_manager.o
 .debug_abbrev    0x0003a5          0x1 build/default/debug/mcc_generated_files/mcc.o
 .debug_abbrev    0x0003a6         0xd0 build/default/debug/mcc_generated_files/pin_manager.o
 .debug_abbrev    0x000476        0x181 build/default/debug/mcc_generated_files/tmr1.o
 .debug_abbrev    0x0005f7        0x100 build/default/debug/mcc_generated_files/traps.o
 .debug_abbrev    0x0006f7        0x169 build/default/debug/mcc_generated_files/uart2.o
 .debug_abbrev    0x000860         0xb4 build/default/debug/mcc_generated_files/system.o
 .debug_abbrev    0x000914         0x6a build/default/debug/mcc_generated_files/clock.o
 .debug_abbrev    0x00097e        0x147 build/default/debug/mcc_generated_files/spi1.o
 .debug_abbrev    0x000ac5        0x1a6 build/default/debug/WINC1500/Board_driver/wf_mcu_driver_stub.o
 .debug_abbrev    0x000c6b        0x14d build/default/debug/WINC1500/Driver/wf_asic.o
 .debug_abbrev    0x000db8        0x1f0 build/default/debug/WINC1500/Driver/wf_hif.o
 .debug_abbrev    0x000fa8        0x103 build/default/debug/WINC1500/Driver/wf_ota.o
 .debug_abbrev    0x0010ab        0x257 build/default/debug/WINC1500/Driver/wf_socket.o
 .debug_abbrev    0x001302        0x1b9 build/default/debug/WINC1500/Driver/wf_spi.o
 .debug_abbrev    0x0014bb        0x13d build/default/debug/WINC1500/Driver/wf_spi_flash.o
 .debug_abbrev    0x0015f8         0xb3 build/default/debug/WINC1500/Driver/wf_utils.o
 .debug_abbrev    0x0016ab        0x23f build/default/debug/WINC1500/Driver/wf_wifi.o
 .debug_abbrev    0x0018ea         0x1f build/default/debug/WINC1500/Example/winc1500_fw_update_over_serial.o
 .debug_abbrev    0x001909         0x1f build/default/debug/WINC1500/Example/winc1500_http_download.o
 .debug_abbrev    0x001928         0x1f build/default/debug/WINC1500/Example/winc1500_locate_ip_address.o
 .debug_abbrev    0x001947         0x1f build/default/debug/WINC1500/Example/winc1500_mac_address.o
 .debug_abbrev    0x001966         0x1f build/default/debug/WINC1500/Example/winc1500_mode_ap.o
 .debug_abbrev    0x001985         0x1f build/default/debug/WINC1500/Example/winc1500_mode_change.o
 .debug_abbrev    0x0019a4         0x1f build/default/debug/WINC1500/Example/winc1500_mode_p2p.o
 .debug_abbrev    0x0019c3         0x1f build/default/debug/WINC1500/Example/winc1500_mode_sta.o
 .debug_abbrev    0x0019e2         0x1f build/default/debug/WINC1500/Example/winc1500_ota_firmware_update.o
 .debug_abbrev    0x001a01         0x1f build/default/debug/WINC1500/Example/winc1500_power_save_mode.o
 .debug_abbrev    0x001a20        0x16c build/default/debug/WINC1500/Example/winc1500_provision_http.o
 .debug_abbrev    0x001b8c         0x1f build/default/debug/WINC1500/Example/winc1500_security_wep_wpa.o
 .debug_abbrev    0x001bab         0x1f build/default/debug/WINC1500/Example/winc1500_security_wps.o
 .debug_abbrev    0x001bca         0x1f build/default/debug/WINC1500/Example/winc1500_send_email.o
 .debug_abbrev    0x001be9         0x1f build/default/debug/WINC1500/Example/winc1500_signal_strength.o
 .debug_abbrev    0x001c08         0x1f build/default/debug/WINC1500/Example/winc1500_ssl_connect.o
 .debug_abbrev    0x001c27         0x1f build/default/debug/WINC1500/Example/winc1500_tcp_client.o
 .debug_abbrev    0x001c46         0x1f build/default/debug/WINC1500/Example/winc1500_tcp_server.o
 .debug_abbrev    0x001c65         0x1f build/default/debug/WINC1500/Example/winc1500_time_client.o
 .debug_abbrev    0x001c84         0x1f build/default/debug/WINC1500/Example/winc1500_weather_client.o
 .debug_abbrev    0x001ca3        0x1ef build/default/debug/WINC1500/Support/winc1500_support_stub.o
 .debug_abbrev    0x001e92         0xf2 build/default/debug/bsp.o
 .debug_abbrev    0x001f84         0xf2 build/default/debug/main.o
 .debug_abbrev    0x002076        0x1cd build/default/debug/ST7735.o
 .debug_abbrev    0x002243         0x14 c:/spb_data/bin/bin/../../lib\libc99-pic30-elf.a(umodsi3.DA_o)
 .debug_abbrev    0x002257         0x14 c:/spb_data/bin/bin/../../lib\libc99-pic30-elf.a(udivsi3.DA_o)
 .debug_abbrev    0x00226b         0x14 c:/spb_data/bin/bin/../../lib\libc99-pic30-elf.a(deqltle.DA_o)
 .debug_abbrev    0x00227f         0x14 c:/spb_data/bin/bin/../../lib\libc99-pic30-elf.a(dgtge.DA_o)
 .debug_abbrev    0x002293         0x14 c:/spb_data/bin/bin/../../lib\libc99-pic30-elf.a(extendsfdf.DA_o)
 .debug_abbrev    0x0022a7         0x14 c:/spb_data/bin/bin/../../lib\libc99-pic30-elf.a(fixdfsi.DA_o)
 .debug_abbrev    0x0022bb         0x14 c:/spb_data/bin/bin/../../lib\libc99-pic30-elf.a(funpack.DA_o)
 .debug_abbrev    0x0022cf         0x14 c:/spb_data/bin/bin/../../lib\libc99-pic30-elf.a(mulsi3.DA_o)
 .debug_abbrev    0x0022e3         0x14 c:/spb_data/bin/bin/../../lib\libc99-pic30-elf.a(dpadd.DA_o)
 .debug_abbrev    0x0022f7         0x14 c:/spb_data/bin/bin/../../lib\libc99-pic30-elf.a(dpdiv.DA_o)
 .debug_abbrev    0x00230b         0x14 c:/spb_data/bin/bin/../../lib\libc99-pic30-elf.a(dpmul.DA_o)
 .debug_abbrev    0x00231f         0x14 c:/spb_data/bin/bin/../../lib\libc99-pic30-elf.a(dpsubs.DA_o)
 .debug_abbrev    0x002333         0x14 c:/spb_data/bin/bin/../../lib\libc99-pic30-elf.a(dcompare.DA_o)
 .debug_abbrev    0x002347         0x14 c:/spb_data/bin/bin/../../lib\libc99-pic30-elf.a(dtype.DA_o)
 .debug_abbrev    0x00235b         0x14 c:/spb_data/bin/bin/../../lib\libc99-pic30-elf.a(dunpack.DA_o)
 .debug_abbrev    0x00236f         0x14 c:/spb_data/bin/bin/../../lib\libc99-pic30-elf.a(dunpack2.DA_o)
 .debug_abbrev    0x002383         0x14 c:/spb_data/bin/bin/../../lib\libc99-pic30-elf.a(dpropagateNaN.DA_o)

.debug_line       0x000000       0x2c34
 *(.debug_line)
 .debug_line      0x000000        0x102 build/default/debug/mcc_generated_files/ext_int.o
 .debug_line      0x000102        0x1d3 build/default/debug/mcc_generated_files/i2c1.o
 .debug_line      0x0002d5         0xf8 build/default/debug/mcc_generated_files/interrupt_manager.o
 .debug_line      0x0003cd         0x1a build/default/debug/mcc_generated_files/mcc.o
 .debug_line      0x0003e7        0x11b build/default/debug/mcc_generated_files/pin_manager.o
 .debug_line      0x000502        0x131 build/default/debug/mcc_generated_files/tmr1.o
 .debug_line      0x000633        0x11f build/default/debug/mcc_generated_files/traps.o
 .debug_line      0x000752        0x120 build/default/debug/mcc_generated_files/uart2.o
 .debug_line      0x000872         0xee build/default/debug/mcc_generated_files/system.o
 .debug_line      0x000960         0xfa build/default/debug/mcc_generated_files/clock.o
 .debug_line      0x000a5a        0x13b build/default/debug/mcc_generated_files/spi1.o
 .debug_line      0x000b95        0x162 build/default/debug/WINC1500/Board_driver/wf_mcu_driver_stub.o
 .debug_line      0x000cf7        0x120 build/default/debug/WINC1500/Driver/wf_asic.o
 .debug_line      0x000e17        0x1b5 build/default/debug/WINC1500/Driver/wf_hif.o
 .debug_line      0x000fcc         0xe1 build/default/debug/WINC1500/Driver/wf_ota.o
 .debug_line      0x0010ad        0x292 build/default/debug/WINC1500/Driver/wf_socket.o
 .debug_line      0x00133f        0x253 build/default/debug/WINC1500/Driver/wf_spi.o
 .debug_line      0x001592        0x1bb build/default/debug/WINC1500/Driver/wf_spi_flash.o
 .debug_line      0x00174d         0xa5 build/default/debug/WINC1500/Driver/wf_utils.o
 .debug_line      0x0017f2        0x39d build/default/debug/WINC1500/Driver/wf_wifi.o
 .debug_line      0x001b8f         0x1a build/default/debug/WINC1500/Example/winc1500_fw_update_over_serial.o
 .debug_line      0x001ba9         0x1a build/default/debug/WINC1500/Example/winc1500_http_download.o
 .debug_line      0x001bc3         0x1a build/default/debug/WINC1500/Example/winc1500_locate_ip_address.o
 .debug_line      0x001bdd         0x1a build/default/debug/WINC1500/Example/winc1500_mac_address.o
 .debug_line      0x001bf7         0x1a build/default/debug/WINC1500/Example/winc1500_mode_ap.o
 .debug_line      0x001c11         0x1a build/default/debug/WINC1500/Example/winc1500_mode_change.o
 .debug_line      0x001c2b         0x1a build/default/debug/WINC1500/Example/winc1500_mode_p2p.o
 .debug_line      0x001c45         0x1a build/default/debug/WINC1500/Example/winc1500_mode_sta.o
 .debug_line      0x001c5f         0x1a build/default/debug/WINC1500/Example/winc1500_ota_firmware_update.o
 .debug_line      0x001c79         0x1a build/default/debug/WINC1500/Example/winc1500_power_save_mode.o
 .debug_line      0x001c93        0x131 build/default/debug/WINC1500/Example/winc1500_provision_http.o
 .debug_line      0x001dc4         0x1a build/default/debug/WINC1500/Example/winc1500_security_wep_wpa.o
 .debug_line      0x001dde         0x1a build/default/debug/WINC1500/Example/winc1500_security_wps.o
 .debug_line      0x001df8         0x1a build/default/debug/WINC1500/Example/winc1500_send_email.o
 .debug_line      0x001e12         0x1a build/default/debug/WINC1500/Example/winc1500_signal_strength.o
 .debug_line      0x001e2c         0x1a build/default/debug/WINC1500/Example/winc1500_ssl_connect.o
 .debug_line      0x001e46         0x1a build/default/debug/WINC1500/Example/winc1500_tcp_client.o
 .debug_line      0x001e60         0x1a build/default/debug/WINC1500/Example/winc1500_tcp_server.o
 .debug_line      0x001e7a         0x1a build/default/debug/WINC1500/Example/winc1500_time_client.o
 .debug_line      0x001e94         0x1a build/default/debug/WINC1500/Example/winc1500_weather_client.o
 .debug_line      0x001eae        0x127 build/default/debug/WINC1500/Support/winc1500_support_stub.o
 .debug_line      0x001fd5         0xdf build/default/debug/bsp.o
 .debug_line      0x0020b4        0x112 build/default/debug/main.o
 .debug_line      0x0021c6        0x33d build/default/debug/ST7735.o
 .debug_line      0x002503         0x38 c:/spb_data/bin/bin/../../lib\libc99-pic30-elf.a(umodsi3.DA_o)
 .debug_line      0x00253b         0x45 c:/spb_data/bin/bin/../../lib\libc99-pic30-elf.a(udivsi3.DA_o)
 .debug_line      0x002580         0x3a c:/spb_data/bin/bin/../../lib\libc99-pic30-elf.a(deqltle.DA_o)
 .debug_line      0x0025ba         0x38 c:/spb_data/bin/bin/../../lib\libc99-pic30-elf.a(dgtge.DA_o)
 .debug_line      0x0025f2         0x59 c:/spb_data/bin/bin/../../lib\libc99-pic30-elf.a(extendsfdf.DA_o)
 .debug_line      0x00264b         0x61 c:/spb_data/bin/bin/../../lib\libc99-pic30-elf.a(fixdfsi.DA_o)
 .debug_line      0x0026ac         0x4a c:/spb_data/bin/bin/../../lib\libc99-pic30-elf.a(funpack.DA_o)
 .debug_line      0x0026f6         0x3a c:/spb_data/bin/bin/../../lib\libc99-pic30-elf.a(mulsi3.DA_o)
 .debug_line      0x002730         0xa2 c:/spb_data/bin/bin/../../lib\libc99-pic30-elf.a(dpadd.DA_o)
 .debug_line      0x0027d2        0x100 c:/spb_data/bin/bin/../../lib\libc99-pic30-elf.a(dpdiv.DA_o)
 .debug_line      0x0028d2         0xde c:/spb_data/bin/bin/../../lib\libc99-pic30-elf.a(dpmul.DA_o)
 .debug_line      0x0029b0         0xe8 c:/spb_data/bin/bin/../../lib\libc99-pic30-elf.a(dpsubs.DA_o)
 .debug_line      0x002a98         0x5f c:/spb_data/bin/bin/../../lib\libc99-pic30-elf.a(dcompare.DA_o)
 .debug_line      0x002af7         0x45 c:/spb_data/bin/bin/../../lib\libc99-pic30-elf.a(dtype.DA_o)
 .debug_line      0x002b3c         0x5c c:/spb_data/bin/bin/../../lib\libc99-pic30-elf.a(dunpack.DA_o)
 .debug_line      0x002b98         0x53 c:/spb_data/bin/bin/../../lib\libc99-pic30-elf.a(dunpack2.DA_o)
 .debug_line      0x002beb         0x49 c:/spb_data/bin/bin/../../lib\libc99-pic30-elf.a(dpropagateNaN.DA_o)

.debug_frame      0x000000       0x21e8
 *(.debug_frame)
 .debug_frame     0x000000         0x6c build/default/debug/mcc_generated_files/ext_int.o
 .debug_frame     0x00006c        0x170 build/default/debug/mcc_generated_files/i2c1.o
 .debug_frame     0x0001dc         0x2e build/default/debug/mcc_generated_files/interrupt_manager.o
 .debug_frame     0x00020a         0x52 build/default/debug/mcc_generated_files/pin_manager.o
 .debug_frame     0x00025c        0x18a build/default/debug/mcc_generated_files/tmr1.o
 .debug_frame     0x0003e6        0x17e build/default/debug/mcc_generated_files/traps.o
 .debug_frame     0x000564         0x96 build/default/debug/mcc_generated_files/uart2.o
 .debug_frame     0x0005fa         0x2e build/default/debug/mcc_generated_files/system.o
 .debug_frame     0x000628         0x2e build/default/debug/mcc_generated_files/clock.o
 .debug_frame     0x000656         0xb0 build/default/debug/mcc_generated_files/spi1.o
 .debug_frame     0x000706        0x14c build/default/debug/WINC1500/Board_driver/wf_mcu_driver_stub.o
 .debug_frame     0x000852        0x16c build/default/debug/WINC1500/Driver/wf_asic.o
 .debug_frame     0x0009be        0x210 build/default/debug/WINC1500/Driver/wf_hif.o
 .debug_frame     0x000bce         0xd8 build/default/debug/WINC1500/Driver/wf_ota.o
 .debug_frame     0x000ca6        0x240 build/default/debug/WINC1500/Driver/wf_socket.o
 .debug_frame     0x000ee6        0x34c build/default/debug/WINC1500/Driver/wf_spi.o
 .debug_frame     0x001232        0x1de build/default/debug/WINC1500/Driver/wf_spi_flash.o
 .debug_frame     0x001410         0x8c build/default/debug/WINC1500/Driver/wf_utils.o
 .debug_frame     0x00149c        0x662 build/default/debug/WINC1500/Driver/wf_wifi.o
 .debug_frame     0x001afe         0x94 build/default/debug/WINC1500/Example/winc1500_provision_http.o
 .debug_frame     0x001b92        0x112 build/default/debug/WINC1500/Support/winc1500_support_stub.o
 .debug_frame     0x001ca4         0x62 build/default/debug/bsp.o
 .debug_frame     0x001d06        0x126 build/default/debug/main.o
 .debug_frame     0x001e2c        0x3bc build/default/debug/ST7735.o

.debug_str        0x000000        0x629
 *(.debug_str)
 .debug_str       0x000000         0x1e build/default/debug/mcc_generated_files/ext_int.o
 .debug_str       0x00001e         0x5d build/default/debug/mcc_generated_files/i2c1.o
 .debug_str       0x00007b         0x1c build/default/debug/mcc_generated_files/interrupt_manager.o
 .debug_str       0x000097         0x2a build/default/debug/mcc_generated_files/pin_manager.o
 .debug_str       0x0000c1         0x1c build/default/debug/mcc_generated_files/tmr1.o
 .debug_str       0x0000dd         0x18 build/default/debug/mcc_generated_files/traps.o
 .debug_str       0x0000f5         0x15 build/default/debug/mcc_generated_files/uart2.o
 .debug_str       0x00010a          0xc build/default/debug/mcc_generated_files/system.o
 .debug_str       0x000116         0x12 build/default/debug/mcc_generated_files/clock.o
 .debug_str       0x000128         0xa3 build/default/debug/mcc_generated_files/spi1.o
 .debug_str       0x0001cb         0x5f build/default/debug/WINC1500/Board_driver/wf_mcu_driver_stub.o
 .debug_str       0x00022a         0x22 build/default/debug/WINC1500/Driver/wf_hif.o
 .debug_str       0x00024c         0x12 build/default/debug/WINC1500/Driver/wf_ota.o
 .debug_str       0x00025e         0xef build/default/debug/WINC1500/Driver/wf_socket.o
 .debug_str       0x00034d         0x53 build/default/debug/WINC1500/Driver/wf_spi.o
 .debug_str       0x0003a0         0x2c build/default/debug/WINC1500/Driver/wf_spi_flash.o
 .debug_str       0x0003cc        0x115 build/default/debug/WINC1500/Driver/wf_wifi.o
 .debug_str       0x0004e1         0x1e build/default/debug/WINC1500/Example/winc1500_provision_http.o
 .debug_str       0x0004ff         0xd9 build/default/debug/WINC1500/Support/winc1500_support_stub.o
 .debug_str       0x0005d8          0xc build/default/debug/bsp.o
 .debug_str       0x0005e4          0x6 build/default/debug/main.o
 .debug_str       0x0005ea         0x3f build/default/debug/ST7735.o

.debug_loc
 *(.debug_loc)

.debug_macinfo
 *(.debug_macinfo)

.debug_pubnames
                  0x000000       0x15f5
 *(.debug_pubnames)
 .debug_pubnames
                  0x000000         0x3c build/default/debug/mcc_generated_files/ext_int.o
 .debug_pubnames
                  0x00003c        0x103 build/default/debug/mcc_generated_files/i2c1.o
 .debug_pubnames
                  0x00013f         0x2b build/default/debug/mcc_generated_files/interrupt_manager.o
 .debug_pubnames
                  0x00016a         0x3f build/default/debug/mcc_generated_files/pin_manager.o
 .debug_pubnames
                  0x0001a9        0x133 build/default/debug/mcc_generated_files/tmr1.o
 .debug_pubnames
                  0x0002dc         0x7d build/default/debug/mcc_generated_files/traps.o
 .debug_pubnames
                  0x000359         0x6d build/default/debug/mcc_generated_files/uart2.o
 .debug_pubnames
                  0x0003c6         0x28 build/default/debug/mcc_generated_files/system.o
 .debug_pubnames
                  0x0003ee         0x27 build/default/debug/mcc_generated_files/clock.o
 .debug_pubnames
                  0x000415         0x95 build/default/debug/mcc_generated_files/spi1.o
 .debug_pubnames
                  0x0004aa        0x133 build/default/debug/WINC1500/Board_driver/wf_mcu_driver_stub.o
 .debug_pubnames
                  0x0005dd         0xcc build/default/debug/WINC1500/Driver/wf_asic.o
 .debug_pubnames
                  0x0006a9        0x145 build/default/debug/WINC1500/Driver/wf_hif.o
 .debug_pubnames
                  0x0007ee         0xc7 build/default/debug/WINC1500/Driver/wf_ota.o
 .debug_pubnames
                  0x0008b5        0x187 build/default/debug/WINC1500/Driver/wf_socket.o
 .debug_pubnames
                  0x000a3c         0xfe build/default/debug/WINC1500/Driver/wf_spi.o
 .debug_pubnames
                  0x000b3a         0x79 build/default/debug/WINC1500/Driver/wf_spi_flash.o
 .debug_pubnames
                  0x000bb3         0x55 build/default/debug/WINC1500/Driver/wf_utils.o
 .debug_pubnames
                  0x000c08        0x52d build/default/debug/WINC1500/Driver/wf_wifi.o
 .debug_pubnames
                  0x001135         0x35 build/default/debug/WINC1500/Example/winc1500_provision_http.o
 .debug_pubnames
                  0x00116a        0x105 build/default/debug/WINC1500/Support/winc1500_support_stub.o
 .debug_pubnames
                  0x00126f         0x2c build/default/debug/bsp.o
 .debug_pubnames
                  0x00129b         0xcb build/default/debug/main.o
 .debug_pubnames
                  0x001366        0x28f build/default/debug/ST7735.o

.debug_ranges
 *(.debug_ranges)

.debug_aranges    0x000000        0x468
 *(.debug_aranges)
 .debug_aranges
                  0x000000         0x18 build/default/debug/mcc_generated_files/ext_int.o
 .debug_aranges
                  0x000018         0x18 build/default/debug/mcc_generated_files/i2c1.o
 .debug_aranges
                  0x000030         0x18 build/default/debug/mcc_generated_files/interrupt_manager.o
 .debug_aranges
                  0x000048         0x18 build/default/debug/mcc_generated_files/pin_manager.o
 .debug_aranges
                  0x000060         0x18 build/default/debug/mcc_generated_files/tmr1.o
 .debug_aranges
                  0x000078         0x18 build/default/debug/mcc_generated_files/traps.o
 .debug_aranges
                  0x000090         0x20 build/default/debug/mcc_generated_files/uart2.o
 .debug_aranges
                  0x0000b0         0x18 build/default/debug/mcc_generated_files/system.o
 .debug_aranges
                  0x0000c8         0x18 build/default/debug/mcc_generated_files/clock.o
 .debug_aranges
                  0x0000e0         0x18 build/default/debug/mcc_generated_files/spi1.o
 .debug_aranges
                  0x0000f8         0x18 build/default/debug/WINC1500/Board_driver/wf_mcu_driver_stub.o
 .debug_aranges
                  0x000110         0x18 build/default/debug/WINC1500/Driver/wf_asic.o
 .debug_aranges
                  0x000128         0x18 build/default/debug/WINC1500/Driver/wf_hif.o
 .debug_aranges
                  0x000140         0x18 build/default/debug/WINC1500/Driver/wf_ota.o
 .debug_aranges
                  0x000158         0x18 build/default/debug/WINC1500/Driver/wf_socket.o
 .debug_aranges
                  0x000170         0x18 build/default/debug/WINC1500/Driver/wf_spi.o
 .debug_aranges
                  0x000188         0x18 build/default/debug/WINC1500/Driver/wf_spi_flash.o
 .debug_aranges
                  0x0001a0         0x18 build/default/debug/WINC1500/Driver/wf_utils.o
 .debug_aranges
                  0x0001b8         0x18 build/default/debug/WINC1500/Driver/wf_wifi.o
 .debug_aranges
                  0x0001d0         0x18 build/default/debug/WINC1500/Example/winc1500_provision_http.o
 .debug_aranges
                  0x0001e8         0x18 build/default/debug/WINC1500/Support/winc1500_support_stub.o
 .debug_aranges
                  0x000200         0x18 build/default/debug/bsp.o
 .debug_aranges
                  0x000218         0x18 build/default/debug/main.o
 .debug_aranges
                  0x000230         0x18 build/default/debug/ST7735.o
 .debug_aranges
                  0x000248         0x20 c:/spb_data/bin/bin/../../lib\libc99-pic30-elf.a(umodsi3.DA_o)
 .debug_aranges
                  0x000268         0x20 c:/spb_data/bin/bin/../../lib\libc99-pic30-elf.a(udivsi3.DA_o)
 .debug_aranges
                  0x000288         0x20 c:/spb_data/bin/bin/../../lib\libc99-pic30-elf.a(deqltle.DA_o)
 .debug_aranges
                  0x0002a8         0x20 c:/spb_data/bin/bin/../../lib\libc99-pic30-elf.a(dgtge.DA_o)
 .debug_aranges
                  0x0002c8         0x20 c:/spb_data/bin/bin/../../lib\libc99-pic30-elf.a(extendsfdf.DA_o)
 .debug_aranges
                  0x0002e8         0x20 c:/spb_data/bin/bin/../../lib\libc99-pic30-elf.a(fixdfsi.DA_o)
 .debug_aranges
                  0x000308         0x20 c:/spb_data/bin/bin/../../lib\libc99-pic30-elf.a(funpack.DA_o)
 .debug_aranges
                  0x000328         0x20 c:/spb_data/bin/bin/../../lib\libc99-pic30-elf.a(mulsi3.DA_o)
 .debug_aranges
                  0x000348         0x20 c:/spb_data/bin/bin/../../lib\libc99-pic30-elf.a(dpadd.DA_o)
 .debug_aranges
                  0x000368         0x20 c:/spb_data/bin/bin/../../lib\libc99-pic30-elf.a(dpdiv.DA_o)
 .debug_aranges
                  0x000388         0x20 c:/spb_data/bin/bin/../../lib\libc99-pic30-elf.a(dpmul.DA_o)
 .debug_aranges
                  0x0003a8         0x20 c:/spb_data/bin/bin/../../lib\libc99-pic30-elf.a(dpsubs.DA_o)
 .debug_aranges
                  0x0003c8         0x20 c:/spb_data/bin/bin/../../lib\libc99-pic30-elf.a(dcompare.DA_o)
 .debug_aranges
                  0x0003e8         0x20 c:/spb_data/bin/bin/../../lib\libc99-pic30-elf.a(dtype.DA_o)
 .debug_aranges
                  0x000408         0x20 c:/spb_data/bin/bin/../../lib\libc99-pic30-elf.a(dunpack.DA_o)
 .debug_aranges
                  0x000428         0x20 c:/spb_data/bin/bin/../../lib\libc99-pic30-elf.a(dunpack2.DA_o)
 .debug_aranges
                  0x000448         0x20 c:/spb_data/bin/bin/../../lib\libc99-pic30-elf.a(dpropagateNaN.DA_o)
                    0x0000                  WREG0 = 0x0
                    0x0000                  _WREG0 = 0x0
                    0x0002                  WREG1 = 0x2
                    0x0002                  _WREG1 = 0x2
                    0x0004                  WREG2 = 0x4
                    0x0004                  _WREG2 = 0x4
                    0x0006                  WREG3 = 0x6
                    0x0006                  _WREG3 = 0x6
                    0x0008                  WREG4 = 0x8
                    0x0008                  _WREG4 = 0x8
                    0x000a                  WREG5 = 0xa
                    0x000a                  _WREG5 = 0xa
                    0x000c                  WREG6 = 0xc
                    0x000c                  _WREG6 = 0xc
                    0x000e                  WREG7 = 0xe
                    0x000e                  _WREG7 = 0xe
                    0x0010                  WREG8 = 0x10
                    0x0010                  _WREG8 = 0x10
                    0x0012                  WREG9 = 0x12
                    0x0012                  _WREG9 = 0x12
                    0x0014                  WREG10 = 0x14
                    0x0014                  _WREG10 = 0x14
                    0x0016                  WREG11 = 0x16
                    0x0016                  _WREG11 = 0x16
                    0x0018                  WREG12 = 0x18
                    0x0018                  _WREG12 = 0x18
                    0x001a                  WREG13 = 0x1a
                    0x001a                  _WREG13 = 0x1a
                    0x001c                  WREG14 = 0x1c
                    0x001c                  _WREG14 = 0x1c
                    0x001e                  WREG15 = 0x1e
                    0x001e                  _WREG15 = 0x1e
                    0x0020                  SPLIM = 0x20
                    0x0020                  _SPLIM = 0x20
                    0x002e                  PCL = 0x2e
                    0x002e                  _PCL = 0x2e
                    0x0030                  PCH = 0x30
                    0x0030                  _PCH = 0x30
                    0x0032                  DSRPAG = 0x32
                    0x0032                  _DSRPAG = 0x32
                    0x0032                  _DSRPAGbits = 0x32
                    0x0034                  DSWPAG = 0x34
                    0x0034                  _DSWPAG = 0x34
                    0x0034                  _DSWPAGbits = 0x34
                    0x0036                  RCOUNT = 0x36
                    0x0036                  _RCOUNT = 0x36
                    0x0042                  SR = 0x42
                    0x0042                  _SR = 0x42
                    0x0042                  _SRbits = 0x42
                    0x0044                  CORCON = 0x44
                    0x0044                  _CORCON = 0x44
                    0x0044                  _CORCONbits = 0x44
                    0x0052                  DISICNT = 0x52
                    0x0052                  _DISICNT = 0x52
                    0x0052                  _DISICNTbits = 0x52
                    0x0054                  TBLPAG = 0x54
                    0x0054                  _TBLPAG = 0x54
                    0x0054                  _TBLPAGbits = 0x54
                    0x0080                  INTCON1 = 0x80
                    0x0080                  _INTCON1 = 0x80
                    0x0080                  _INTCON1bits = 0x80
                    0x0082                  INTCON2 = 0x82
                    0x0082                  _INTCON2 = 0x82
                    0x0082                  _INTCON2bits = 0x82
                    0x0086                  INTCON4 = 0x86
                    0x0086                  _INTCON4 = 0x86
                    0x0086                  _INTCON4bits = 0x86
                    0x0088                  IFS0 = 0x88
                    0x0088                  _IFS0 = 0x88
                    0x0088                  _IFS0bits = 0x88
                    0x008a                  IFS1 = 0x8a
                    0x008a                  _IFS1 = 0x8a
                    0x008a                  _IFS1bits = 0x8a
                    0x008c                  IFS2 = 0x8c
                    0x008c                  _IFS2 = 0x8c
                    0x008c                  _IFS2bits = 0x8c
                    0x008e                  IFS3 = 0x8e
                    0x008e                  _IFS3 = 0x8e
                    0x008e                  _IFS3bits = 0x8e
                    0x0090                  IFS4 = 0x90
                    0x0090                  _IFS4 = 0x90
                    0x0090                  _IFS4bits = 0x90
                    0x0092                  IFS5 = 0x92
                    0x0092                  _IFS5 = 0x92
                    0x0092                  _IFS5bits = 0x92
                    0x0094                  IFS6 = 0x94
                    0x0094                  _IFS6 = 0x94
                    0x0094                  _IFS6bits = 0x94
                    0x0096                  IFS7 = 0x96
                    0x0096                  _IFS7 = 0x96
                    0x0096                  _IFS7bits = 0x96
                    0x0098                  IEC0 = 0x98
                    0x0098                  _IEC0 = 0x98
                    0x0098                  _IEC0bits = 0x98
                    0x009a                  IEC1 = 0x9a
                    0x009a                  _IEC1 = 0x9a
                    0x009a                  _IEC1bits = 0x9a
                    0x009c                  IEC2 = 0x9c
                    0x009c                  _IEC2 = 0x9c
                    0x009c                  _IEC2bits = 0x9c
                    0x009e                  IEC3 = 0x9e
                    0x009e                  _IEC3 = 0x9e
                    0x009e                  _IEC3bits = 0x9e
                    0x00a0                  IEC4 = 0xa0
                    0x00a0                  _IEC4 = 0xa0
                    0x00a0                  _IEC4bits = 0xa0
                    0x00a2                  IEC5 = 0xa2
                    0x00a2                  _IEC5 = 0xa2
                    0x00a2                  _IEC5bits = 0xa2
                    0x00a4                  IEC6 = 0xa4
                    0x00a4                  _IEC6 = 0xa4
                    0x00a4                  _IEC6bits = 0xa4
                    0x00a6                  IEC7 = 0xa6
                    0x00a6                  _IEC7 = 0xa6
                    0x00a6                  _IEC7bits = 0xa6
                    0x00a8                  IPC0 = 0xa8
                    0x00a8                  _IPC0 = 0xa8
                    0x00a8                  _IPC0bits = 0xa8
                    0x00aa                  IPC1 = 0xaa
                    0x00aa                  _IPC1 = 0xaa
                    0x00aa                  _IPC1bits = 0xaa
                    0x00ac                  IPC2 = 0xac
                    0x00ac                  _IPC2 = 0xac
                    0x00ac                  _IPC2bits = 0xac
                    0x00ae                  IPC3 = 0xae
                    0x00ae                  _IPC3 = 0xae
                    0x00ae                  _IPC3bits = 0xae
                    0x00b0                  IPC4 = 0xb0
                    0x00b0                  _IPC4 = 0xb0
                    0x00b0                  _IPC4bits = 0xb0
                    0x00b2                  IPC5 = 0xb2
                    0x00b2                  _IPC5 = 0xb2
                    0x00b2                  _IPC5bits = 0xb2
                    0x00b4                  IPC6 = 0xb4
                    0x00b4                  _IPC6 = 0xb4
                    0x00b4                  _IPC6bits = 0xb4
                    0x00b6                  IPC7 = 0xb6
                    0x00b6                  _IPC7 = 0xb6
                    0x00b6                  _IPC7bits = 0xb6
                    0x00b8                  IPC8 = 0xb8
                    0x00b8                  _IPC8 = 0xb8
                    0x00b8                  _IPC8bits = 0xb8
                    0x00ba                  IPC9 = 0xba
                    0x00ba                  _IPC9 = 0xba
                    0x00ba                  _IPC9bits = 0xba
                    0x00bc                  IPC10 = 0xbc
                    0x00bc                  _IPC10 = 0xbc
                    0x00bc                  _IPC10bits = 0xbc
                    0x00be                  IPC11 = 0xbe
                    0x00be                  _IPC11 = 0xbe
                    0x00be                  _IPC11bits = 0xbe
                    0x00c0                  IPC12 = 0xc0
                    0x00c0                  _IPC12 = 0xc0
                    0x00c0                  _IPC12bits = 0xc0
                    0x00c2                  IPC13 = 0xc2
                    0x00c2                  _IPC13 = 0xc2
                    0x00c2                  _IPC13bits = 0xc2
                    0x00c4                  IPC14 = 0xc4
                    0x00c4                  _IPC14 = 0xc4
                    0x00c4                  _IPC14bits = 0xc4
                    0x00c6                  IPC15 = 0xc6
                    0x00c6                  _IPC15 = 0xc6
                    0x00c6                  _IPC15bits = 0xc6
                    0x00c8                  IPC16 = 0xc8
                    0x00c8                  _IPC16 = 0xc8
                    0x00c8                  _IPC16bits = 0xc8
                    0x00ca                  IPC17 = 0xca
                    0x00ca                  _IPC17 = 0xca
                    0x00ca                  _IPC17bits = 0xca
                    0x00cc                  IPC18 = 0xcc
                    0x00cc                  _IPC18 = 0xcc
                    0x00cc                  _IPC18bits = 0xcc
                    0x00ce                  IPC19 = 0xce
                    0x00ce                  _IPC19 = 0xce
                    0x00ce                  _IPC19bits = 0xce
                    0x00d0                  IPC20 = 0xd0
                    0x00d0                  _IPC20 = 0xd0
                    0x00d0                  _IPC20bits = 0xd0
                    0x00d2                  IPC21 = 0xd2
                    0x00d2                  _IPC21 = 0xd2
                    0x00d2                  _IPC21bits = 0xd2
                    0x00d4                  IPC22 = 0xd4
                    0x00d4                  _IPC22 = 0xd4
                    0x00d4                  _IPC22bits = 0xd4
                    0x00d6                  IPC23 = 0xd6
                    0x00d6                  _IPC23 = 0xd6
                    0x00d6                  _IPC23bits = 0xd6
                    0x00d8                  IPC24 = 0xd8
                    0x00d8                  _IPC24 = 0xd8
                    0x00d8                  _IPC24bits = 0xd8
                    0x00da                  IPC25 = 0xda
                    0x00da                  _IPC25 = 0xda
                    0x00da                  _IPC25bits = 0xda
                    0x00dc                  IPC26 = 0xdc
                    0x00dc                  _IPC26 = 0xdc
                    0x00dc                  _IPC26bits = 0xdc
                    0x00de                  IPC27 = 0xde
                    0x00de                  _IPC27 = 0xde
                    0x00de                  _IPC27bits = 0xde
                    0x00e0                  IPC28 = 0xe0
                    0x00e0                  _IPC28 = 0xe0
                    0x00e0                  _IPC28bits = 0xe0
                    0x00e2                  IPC29 = 0xe2
                    0x00e2                  _IPC29 = 0xe2
                    0x00e2                  _IPC29bits = 0xe2
                    0x00e4                  INTTREG = 0xe4
                    0x00e4                  _INTTREG = 0xe4
                    0x00e4                  _INTTREGbits = 0xe4
                    0x0100                  OSCCON = 0x100
                    0x0100                  _OSCCON = 0x100
                    0x0100                  _OSCCONbits = 0x100
                    0x0100                  OSCCONL = 0x100
                    0x0100                  _OSCCONL = 0x100
                    0x0101                  OSCCONH = 0x101
                    0x0101                  _OSCCONH = 0x101
                    0x0102                  CLKDIV = 0x102
                    0x0102                  _CLKDIV = 0x102
                    0x0102                  _CLKDIVbits = 0x102
                    0x0106                  OSCTUN = 0x106
                    0x0106                  _OSCTUN = 0x106
                    0x0106                  _OSCTUNbits = 0x106
                    0x0108                  DCOTUN = 0x108
                    0x0108                  _DCOTUN = 0x108
                    0x0108                  _DCOTUNbits = 0x108
                    0x010a                  DCOCON = 0x10a
                    0x010a                  _DCOCON = 0x10a
                    0x010a                  _DCOCONbits = 0x10a
                    0x010c                  OSCDIV = 0x10c
                    0x010c                  _OSCDIV = 0x10c
                    0x010c                  _OSCDIVbits = 0x10c
                    0x010e                  OSCFDIV = 0x10e
                    0x010e                  _OSCFDIV = 0x10e
                    0x010e                  _OSCFDIVbits = 0x10e
                    0x0110                  RCON = 0x110
                    0x0110                  _RCON = 0x110
                    0x0110                  _RCONbits = 0x110
                    0x0114                  HLVDCON = 0x114
                    0x0114                  _HLVDCON = 0x114
                    0x0114                  _HLVDCONbits = 0x114
                    0x0128                  PMCON1 = 0x128
                    0x0128                  _PMCON1 = 0x128
                    0x0128                  _PMCON1bits = 0x128
                    0x012a                  PMCON2 = 0x12a
                    0x012a                  _PMCON2 = 0x12a
                    0x012a                  _PMCON2bits = 0x12a
                    0x012c                  PMCON3 = 0x12c
                    0x012c                  _PMCON3 = 0x12c
                    0x012c                  _PMCON3bits = 0x12c
                    0x012e                  PMCON4 = 0x12e
                    0x012e                  _PMCON4 = 0x12e
                    0x012e                  _PMCON4bits = 0x12e
                    0x0130                  PMCS1CF = 0x130
                    0x0130                  _PMCS1CF = 0x130
                    0x0130                  _PMCS1CFbits = 0x130
                    0x0132                  PMCS1BS = 0x132
                    0x0132                  _PMCS1BS = 0x132
                    0x0132                  _PMCS1BSbits = 0x132
                    0x0134                  PMCS1MD = 0x134
                    0x0134                  _PMCS1MD = 0x134
                    0x0134                  _PMCS1MDbits = 0x134
                    0x0136                  PMCS2CF = 0x136
                    0x0136                  _PMCS2CF = 0x136
                    0x0136                  _PMCS2CFbits = 0x136
                    0x0138                  PMCS2BS = 0x138
                    0x0138                  _PMCS2BS = 0x138
                    0x0138                  _PMCS2BSbits = 0x138
                    0x013a                  PMCS2MD = 0x13a
                    0x013a                  _PMCS2MD = 0x13a
                    0x013a                  _PMCS2MDbits = 0x13a
                    0x013c                  PMDOUT1 = 0x13c
                    0x013c                  _PMDOUT1 = 0x13c
                    0x013e                  PMDOUT2 = 0x13e
                    0x013e                  _PMDOUT2 = 0x13e
                    0x0140                  PMDIN1 = 0x140
                    0x0140                  _PMDIN1 = 0x140
                    0x0142                  PMDIN2 = 0x142
                    0x0142                  _PMDIN2 = 0x142
                    0x0144                  PMSTAT = 0x144
                    0x0144                  _PMSTAT = 0x144
                    0x0144                  _PMSTATbits = 0x144
                    0x0158                  CRCCON1 = 0x158
                    0x0158                  _CRCCON1 = 0x158
                    0x0158                  _CRCCON1bits = 0x158
                    0x015a                  CRCCON2 = 0x15a
                    0x015a                  _CRCCON2 = 0x15a
                    0x015a                  _CRCCON2bits = 0x15a
                    0x015c                  CRCXORL = 0x15c
                    0x015c                  _CRCXORL = 0x15c
                    0x015c                  _CRCXORLbits = 0x15c
                    0x015e                  CRCXORH = 0x15e
                    0x015e                  _CRCXORH = 0x15e
                    0x015e                  _CRCXORHbits = 0x15e
                    0x0160                  CRCDAT = 0x160
                    0x0160                  _CRCDAT = 0x160
                    0x0160                  CRCDATL = 0x160
                    0x0160                  _CRCDATL = 0x160
                    0x0162                  CRCDATH = 0x162
                    0x0162                  _CRCDATH = 0x162
                    0x0164                  CRCWDAT = 0x164
                    0x0164                  _CRCWDAT = 0x164
                    0x0164                  CRCWDATL = 0x164
                    0x0164                  _CRCWDATL = 0x164
                    0x0166                  CRCWDATH = 0x166
                    0x0166                  _CRCWDATH = 0x166
                    0x0168                  REFOCON1 = 0x168
                    0x0168                  _REFOCON1 = 0x168
                    0x0168                  _REFOCON1bits = 0x168
                    0x0168                  REFOCONL = 0x168
                    0x0168                  _REFOCONL = 0x168
                    0x0168                  _REFOCONLbits = 0x168
                    0x016a                  REFOCON2 = 0x16a
                    0x016a                  _REFOCON2 = 0x16a
                    0x016a                  _REFOCON2bits = 0x16a
                    0x016a                  REFOCONH = 0x16a
                    0x016a                  _REFOCONH = 0x16a
                    0x016a                  _REFOCONHbits = 0x16a
                    0x0178                  PMD1 = 0x178
                    0x0178                  _PMD1 = 0x178
                    0x0178                  _PMD1bits = 0x178
                    0x017a                  PMD2 = 0x17a
                    0x017a                  _PMD2 = 0x17a
                    0x017a                  _PMD2bits = 0x17a
                    0x017c                  PMD3 = 0x17c
                    0x017c                  _PMD3 = 0x17c
                    0x017c                  _PMD3bits = 0x17c
                    0x017e                  PMD4 = 0x17e
                    0x017e                  _PMD4 = 0x17e
                    0x017e                  _PMD4bits = 0x17e
                    0x0180                  PMD5 = 0x180
                    0x0180                  _PMD5 = 0x180
                    0x0180                  _PMD5bits = 0x180
                    0x0182                  PMD6 = 0x182
                    0x0182                  _PMD6 = 0x182
                    0x0182                  _PMD6bits = 0x182
                    0x0184                  PMD7 = 0x184
                    0x0184                  _PMD7 = 0x184
                    0x0184                  _PMD7bits = 0x184
                    0x0186                  PMD8 = 0x186
                    0x0186                  _PMD8 = 0x186
                    0x0186                  _PMD8bits = 0x186
                    0x0190                  TMR1 = 0x190
                    0x0190                  _TMR1 = 0x190
                    0x0192                  PR1 = 0x192
                    0x0192                  _PR1 = 0x192
                    0x0194                  T1CON = 0x194
                    0x0194                  _T1CON = 0x194
                    0x0194                  _T1CONbits = 0x194
                    0x0196                  TMR2 = 0x196
                    0x0196                  _TMR2 = 0x196
                    0x0198                  TMR3HLD = 0x198
                    0x0198                  _TMR3HLD = 0x198
                    0x019a                  TMR3 = 0x19a
                    0x019a                  _TMR3 = 0x19a
                    0x019c                  PR2 = 0x19c
                    0x019c                  _PR2 = 0x19c
                    0x019e                  PR3 = 0x19e
                    0x019e                  _PR3 = 0x19e
                    0x01a0                  T2CON = 0x1a0
                    0x01a0                  _T2CON = 0x1a0
                    0x01a0                  _T2CONbits = 0x1a0
                    0x01a2                  T3CON = 0x1a2
                    0x01a2                  _T3CON = 0x1a2
                    0x01a2                  _T3CONbits = 0x1a2
                    0x01c0                  CTMUCON1L = 0x1c0
                    0x01c0                  _CTMUCON1L = 0x1c0
                    0x01c0                  _CTMUCON1Lbits = 0x1c0
                    0x01c2                  CTMUCON1H = 0x1c2
                    0x01c2                  _CTMUCON1H = 0x1c2
                    0x01c2                  _CTMUCON1Hbits = 0x1c2
                    0x01c4                  CTMUCON2L = 0x1c4
                    0x01c4                  _CTMUCON2L = 0x1c4
                    0x01c4                  _CTMUCON2Lbits = 0x1c4
                    0x01cc                  RTCCON1L = 0x1cc
                    0x01cc                  _RTCCON1L = 0x1cc
                    0x01cc                  _RTCCON1Lbits = 0x1cc
                    0x01ce                  RTCCON1H = 0x1ce
                    0x01ce                  _RTCCON1H = 0x1ce
                    0x01ce                  _RTCCON1Hbits = 0x1ce
                    0x01d0                  RTCCON2L = 0x1d0
                    0x01d0                  _RTCCON2L = 0x1d0
                    0x01d0                  _RTCCON2Lbits = 0x1d0
                    0x01d2                  RTCCON2H = 0x1d2
                    0x01d2                  _RTCCON2H = 0x1d2
                    0x01d4                  RTCCON3L = 0x1d4
                    0x01d4                  _RTCCON3L = 0x1d4
                    0x01d4                  _RTCCON3Lbits = 0x1d4
                    0x01d8                  RTCSTATL = 0x1d8
                    0x01d8                  _RTCSTATL = 0x1d8
                    0x01d8                  _RTCSTATLbits = 0x1d8
                    0x01dc                  TIMEL = 0x1dc
                    0x01dc                  _TIMEL = 0x1dc
                    0x01dc                  _TIMELbits = 0x1dc
                    0x01de                  TIMEH = 0x1de
                    0x01de                  _TIMEH = 0x1de
                    0x01de                  _TIMEHbits = 0x1de
                    0x01e0                  DATEL = 0x1e0
                    0x01e0                  _DATEL = 0x1e0
                    0x01e0                  _DATELbits = 0x1e0
                    0x01e2                  DATEH = 0x1e2
                    0x01e2                  _DATEH = 0x1e2
                    0x01e2                  _DATEHbits = 0x1e2
                    0x01e4                  ALMTIMEL = 0x1e4
                    0x01e4                  _ALMTIMEL = 0x1e4
                    0x01e4                  _ALMTIMELbits = 0x1e4
                    0x01e6                  ALMTIMEH = 0x1e6
                    0x01e6                  _ALMTIMEH = 0x1e6
                    0x01e6                  _ALMTIMEHbits = 0x1e6
                    0x01e8                  ALMDATEL = 0x1e8
                    0x01e8                  _ALMDATEL = 0x1e8
                    0x01e8                  _ALMDATELbits = 0x1e8
                    0x01ea                  ALMDATEH = 0x1ea
                    0x01ea                  _ALMDATEH = 0x1ea
                    0x01ea                  _ALMDATEHbits = 0x1ea
                    0x01ec                  TSATIMEL = 0x1ec
                    0x01ec                  _TSATIMEL = 0x1ec
                    0x01ec                  _TSATIMELbits = 0x1ec
                    0x01ee                  TSATIMEH = 0x1ee
                    0x01ee                  _TSATIMEH = 0x1ee
                    0x01ee                  _TSATIMEHbits = 0x1ee
                    0x01f0                  TSADATEL = 0x1f0
                    0x01f0                  _TSADATEL = 0x1f0
                    0x01f0                  _TSADATELbits = 0x1f0
                    0x01f2                  TSADATEH = 0x1f2
                    0x01f2                  _TSADATEH = 0x1f2
                    0x01f2                  _TSADATEHbits = 0x1f2
                    0x0200                  IC1CON1 = 0x200
                    0x0200                  _IC1CON1 = 0x200
                    0x0200                  _IC1CON1bits = 0x200
                    0x0202                  IC1CON2 = 0x202
                    0x0202                  _IC1CON2 = 0x202
                    0x0202                  _IC1CON2bits = 0x202
                    0x0204                  IC1BUF = 0x204
                    0x0204                  _IC1BUF = 0x204
                    0x0206                  IC1TMR = 0x206
                    0x0206                  _IC1TMR = 0x206
                    0x0208                  IC2CON1 = 0x208
                    0x0208                  _IC2CON1 = 0x208
                    0x0208                  _IC2CON1bits = 0x208
                    0x020a                  IC2CON2 = 0x20a
                    0x020a                  _IC2CON2 = 0x20a
                    0x020a                  _IC2CON2bits = 0x20a
                    0x020c                  IC2BUF = 0x20c
                    0x020c                  _IC2BUF = 0x20c
                    0x020e                  IC2TMR = 0x20e
                    0x020e                  _IC2TMR = 0x20e
                    0x0210                  IC3CON1 = 0x210
                    0x0210                  _IC3CON1 = 0x210
                    0x0210                  _IC3CON1bits = 0x210
                    0x0212                  IC3CON2 = 0x212
                    0x0212                  _IC3CON2 = 0x212
                    0x0212                  _IC3CON2bits = 0x212
                    0x0214                  IC3BUF = 0x214
                    0x0214                  _IC3BUF = 0x214
                    0x0216                  IC3TMR = 0x216
                    0x0216                  _IC3TMR = 0x216
                    0x0230                  OC1CON1 = 0x230
                    0x0230                  _OC1CON1 = 0x230
                    0x0230                  _OC1CON1bits = 0x230
                    0x0232                  OC1CON2 = 0x232
                    0x0232                  _OC1CON2 = 0x232
                    0x0232                  _OC1CON2bits = 0x232
                    0x0234                  OC1RS = 0x234
                    0x0234                  _OC1RS = 0x234
                    0x0236                  OC1R = 0x236
                    0x0236                  _OC1R = 0x236
                    0x0238                  OC1TMR = 0x238
                    0x0238                  _OC1TMR = 0x238
                    0x023a                  OC2CON1 = 0x23a
                    0x023a                  _OC2CON1 = 0x23a
                    0x023a                  _OC2CON1bits = 0x23a
                    0x023c                  OC2CON2 = 0x23c
                    0x023c                  _OC2CON2 = 0x23c
                    0x023c                  _OC2CON2bits = 0x23c
                    0x023e                  OC2RS = 0x23e
                    0x023e                  _OC2RS = 0x23e
                    0x0240                  OC2R = 0x240
                    0x0240                  _OC2R = 0x240
                    0x0242                  OC2TMR = 0x242
                    0x0242                  _OC2TMR = 0x242
                    0x0244                  OC3CON1 = 0x244
                    0x0244                  _OC3CON1 = 0x244
                    0x0244                  _OC3CON1bits = 0x244
                    0x0246                  OC3CON2 = 0x246
                    0x0246                  _OC3CON2 = 0x246
                    0x0246                  _OC3CON2bits = 0x246
                    0x0248                  OC3RS = 0x248
                    0x0248                  _OC3RS = 0x248
                    0x024a                  OC3R = 0x24a
                    0x024a                  _OC3R = 0x24a
                    0x024c                  OC3TMR = 0x24c
                    0x024c                  _OC3TMR = 0x24c
                    0x026c                  CCP1CON1L = 0x26c
                    0x026c                  _CCP1CON1L = 0x26c
                    0x026c                  _CCP1CON1Lbits = 0x26c
                    0x026e                  CCP1CON1H = 0x26e
                    0x026e                  _CCP1CON1H = 0x26e
                    0x026e                  _CCP1CON1Hbits = 0x26e
                    0x0270                  CCP1CON2L = 0x270
                    0x0270                  _CCP1CON2L = 0x270
                    0x0270                  _CCP1CON2Lbits = 0x270
                    0x0272                  CCP1CON2H = 0x272
                    0x0272                  _CCP1CON2H = 0x272
                    0x0272                  _CCP1CON2Hbits = 0x272
                    0x0274                  CCP1CON3L = 0x274
                    0x0274                  _CCP1CON3L = 0x274
                    0x0274                  _CCP1CON3Lbits = 0x274
                    0x0276                  CCP1CON3H = 0x276
                    0x0276                  _CCP1CON3H = 0x276
                    0x0276                  _CCP1CON3Hbits = 0x276
                    0x0278                  CCP1STAT = 0x278
                    0x0278                  _CCP1STAT = 0x278
                    0x0278                  _CCP1STATbits = 0x278
                    0x0278                  CCP1STATL = 0x278
                    0x0278                  _CCP1STATL = 0x278
                    0x0278                  _CCP1STATLbits = 0x278
                    0x027a                  CCP1STATH = 0x27a
                    0x027a                  _CCP1STATH = 0x27a
                    0x027a                  _CCP1STATHbits = 0x27a
                    0x027c                  CCP1TMRL = 0x27c
                    0x027c                  _CCP1TMRL = 0x27c
                    0x027e                  CCP1TMRH = 0x27e
                    0x027e                  _CCP1TMRH = 0x27e
                    0x0280                  CCP1PRL = 0x280
                    0x0280                  _CCP1PRL = 0x280
                    0x0282                  CCP1PRH = 0x282
                    0x0282                  _CCP1PRH = 0x282
                    0x0284                  CCP1RA = 0x284
                    0x0284                  _CCP1RA = 0x284
                    0x0284                  CCP1RAL = 0x284
                    0x0284                  _CCP1RAL = 0x284
                    0x0286                  CCP1RAH = 0x286
                    0x0286                  _CCP1RAH = 0x286
                    0x0288                  CCP1RB = 0x288
                    0x0288                  _CCP1RB = 0x288
                    0x0288                  CCP1RBL = 0x288
                    0x0288                  _CCP1RBL = 0x288
                    0x028a                  CCP1RBH = 0x28a
                    0x028a                  _CCP1RBH = 0x28a
                    0x028c                  CCP1BUFL = 0x28c
                    0x028c                  _CCP1BUFL = 0x28c
                    0x028e                  CCP1BUFH = 0x28e
                    0x028e                  _CCP1BUFH = 0x28e
                    0x0290                  CCP2CON1L = 0x290
                    0x0290                  _CCP2CON1L = 0x290
                    0x0290                  _CCP2CON1Lbits = 0x290
                    0x0292                  CCP2CON1H = 0x292
                    0x0292                  _CCP2CON1H = 0x292
                    0x0292                  _CCP2CON1Hbits = 0x292
                    0x0294                  CCP2CON2L = 0x294
                    0x0294                  _CCP2CON2L = 0x294
                    0x0294                  _CCP2CON2Lbits = 0x294
                    0x0296                  CCP2CON2H = 0x296
                    0x0296                  _CCP2CON2H = 0x296
                    0x0296                  _CCP2CON2Hbits = 0x296
                    0x029a                  CCP2CON3H = 0x29a
                    0x029a                  _CCP2CON3H = 0x29a
                    0x029a                  _CCP2CON3Hbits = 0x29a
                    0x029c                  CCP2STAT = 0x29c
                    0x029c                  _CCP2STAT = 0x29c
                    0x029c                  _CCP2STATbits = 0x29c
                    0x029c                  CCP2STATL = 0x29c
                    0x029c                  _CCP2STATL = 0x29c
                    0x029c                  _CCP2STATLbits = 0x29c
                    0x029e                  CCP2STATH = 0x29e
                    0x029e                  _CCP2STATH = 0x29e
                    0x029e                  _CCP2STATHbits = 0x29e
                    0x02a0                  CCP2TMRL = 0x2a0
                    0x02a0                  _CCP2TMRL = 0x2a0
                    0x02a2                  CCP2TMRH = 0x2a2
                    0x02a2                  _CCP2TMRH = 0x2a2
                    0x02a4                  CCP2PRL = 0x2a4
                    0x02a4                  _CCP2PRL = 0x2a4
                    0x02a6                  CCP2PRH = 0x2a6
                    0x02a6                  _CCP2PRH = 0x2a6
                    0x02a8                  CCP2RA = 0x2a8
                    0x02a8                  _CCP2RA = 0x2a8
                    0x02a8                  CCP2RAL = 0x2a8
                    0x02a8                  _CCP2RAL = 0x2a8
                    0x02aa                  CCP2RAH = 0x2aa
                    0x02aa                  _CCP2RAH = 0x2aa
                    0x02ac                  CCP2RB = 0x2ac
                    0x02ac                  _CCP2RB = 0x2ac
                    0x02ac                  CCP2RBL = 0x2ac
                    0x02ac                  _CCP2RBL = 0x2ac
                    0x02ae                  CCP2RBH = 0x2ae
                    0x02ae                  _CCP2RBH = 0x2ae
                    0x02b0                  CCP2BUFL = 0x2b0
                    0x02b0                  _CCP2BUFL = 0x2b0
                    0x02b2                  CCP2BUFH = 0x2b2
                    0x02b2                  _CCP2BUFH = 0x2b2
                    0x02b4                  CCP3CON1L = 0x2b4
                    0x02b4                  _CCP3CON1L = 0x2b4
                    0x02b4                  _CCP3CON1Lbits = 0x2b4
                    0x02b6                  CCP3CON1H = 0x2b6
                    0x02b6                  _CCP3CON1H = 0x2b6
                    0x02b6                  _CCP3CON1Hbits = 0x2b6
                    0x02b8                  CCP3CON2L = 0x2b8
                    0x02b8                  _CCP3CON2L = 0x2b8
                    0x02b8                  _CCP3CON2Lbits = 0x2b8
                    0x02ba                  CCP3CON2H = 0x2ba
                    0x02ba                  _CCP3CON2H = 0x2ba
                    0x02ba                  _CCP3CON2Hbits = 0x2ba
                    0x02be                  CCP3CON3H = 0x2be
                    0x02be                  _CCP3CON3H = 0x2be
                    0x02be                  _CCP3CON3Hbits = 0x2be
                    0x02c0                  CCP3STAT = 0x2c0
                    0x02c0                  _CCP3STAT = 0x2c0
                    0x02c0                  _CCP3STATbits = 0x2c0
                    0x02c0                  CCP3STATL = 0x2c0
                    0x02c0                  _CCP3STATL = 0x2c0
                    0x02c0                  _CCP3STATLbits = 0x2c0
                    0x02c2                  CCP3STATH = 0x2c2
                    0x02c2                  _CCP3STATH = 0x2c2
                    0x02c2                  _CCP3STATHbits = 0x2c2
                    0x02c4                  CCP3TMRL = 0x2c4
                    0x02c4                  _CCP3TMRL = 0x2c4
                    0x02c6                  CCP3TMRH = 0x2c6
                    0x02c6                  _CCP3TMRH = 0x2c6
                    0x02c8                  CCP3PRL = 0x2c8
                    0x02c8                  _CCP3PRL = 0x2c8
                    0x02ca                  CCP3PRH = 0x2ca
                    0x02ca                  _CCP3PRH = 0x2ca
                    0x02cc                  CCP3RA = 0x2cc
                    0x02cc                  _CCP3RA = 0x2cc
                    0x02cc                  CCP3RAL = 0x2cc
                    0x02cc                  _CCP3RAL = 0x2cc
                    0x02ce                  CCP3RAH = 0x2ce
                    0x02ce                  _CCP3RAH = 0x2ce
                    0x02d0                  CCP3RB = 0x2d0
                    0x02d0                  _CCP3RB = 0x2d0
                    0x02d0                  CCP3RBL = 0x2d0
                    0x02d0                  _CCP3RBL = 0x2d0
                    0x02d2                  CCP3RBH = 0x2d2
                    0x02d2                  _CCP3RBH = 0x2d2
                    0x02d4                  CCP3BUFL = 0x2d4
                    0x02d4                  _CCP3BUFL = 0x2d4
                    0x02d6                  CCP3BUFH = 0x2d6
                    0x02d6                  _CCP3BUFH = 0x2d6
                    0x02e6                  CMSTAT = 0x2e6
                    0x02e6                  _CMSTAT = 0x2e6
                    0x02e6                  _CMSTATbits = 0x2e6
                    0x02e8                  CVRCON = 0x2e8
                    0x02e8                  _CVRCON = 0x2e8
                    0x02e8                  _CVRCONbits = 0x2e8
                    0x02ea                  CM1CON = 0x2ea
                    0x02ea                  _CM1CON = 0x2ea
                    0x02ea                  _CM1CONbits = 0x2ea
                    0x02ec                  CM2CON = 0x2ec
                    0x02ec                  _CM2CON = 0x2ec
                    0x02ec                  _CM2CONbits = 0x2ec
                    0x02ee                  CM3CON = 0x2ee
                    0x02ee                  _CM3CON = 0x2ee
                    0x02ee                  _CM3CONbits = 0x2ee
                    0x02f4                  ANCFG = 0x2f4
                    0x02f4                  _ANCFG = 0x2f4
                    0x02f4                  _ANCFGbits = 0x2f4
                    0x0300                  CCP4CON1L = 0x300
                    0x0300                  _CCP4CON1L = 0x300
                    0x0300                  _CCP4CON1Lbits = 0x300
                    0x0302                  CCP4CON1H = 0x302
                    0x0302                  _CCP4CON1H = 0x302
                    0x0302                  _CCP4CON1Hbits = 0x302
                    0x0304                  CCP4CON2L = 0x304
                    0x0304                  _CCP4CON2L = 0x304
                    0x0304                  _CCP4CON2Lbits = 0x304
                    0x0306                  CCP4CON2H = 0x306
                    0x0306                  _CCP4CON2H = 0x306
                    0x0306                  _CCP4CON2Hbits = 0x306
                    0x030a                  CCP4CON3H = 0x30a
                    0x030a                  _CCP4CON3H = 0x30a
                    0x030a                  _CCP4CON3Hbits = 0x30a
                    0x030c                  CCP4STAT = 0x30c
                    0x030c                  _CCP4STAT = 0x30c
                    0x030c                  _CCP4STATbits = 0x30c
                    0x030c                  CCP4STATL = 0x30c
                    0x030c                  _CCP4STATL = 0x30c
                    0x030c                  _CCP4STATLbits = 0x30c
                    0x030e                  CCP4STATH = 0x30e
                    0x030e                  _CCP4STATH = 0x30e
                    0x030e                  _CCP4STATHbits = 0x30e
                    0x0310                  CCP4TMRL = 0x310
                    0x0310                  _CCP4TMRL = 0x310
                    0x0312                  CCP4TMRH = 0x312
                    0x0312                  _CCP4TMRH = 0x312
                    0x0314                  CCP4PRL = 0x314
                    0x0314                  _CCP4PRL = 0x314
                    0x0316                  CCP4PRH = 0x316
                    0x0316                  _CCP4PRH = 0x316
                    0x0318                  CCP4RA = 0x318
                    0x0318                  _CCP4RA = 0x318
                    0x0318                  CCP4RAL = 0x318
                    0x0318                  _CCP4RAL = 0x318
                    0x031a                  CCP4RAH = 0x31a
                    0x031a                  _CCP4RAH = 0x31a
                    0x031c                  CCP4RB = 0x31c
                    0x031c                  _CCP4RB = 0x31c
                    0x031c                  CCP4RBL = 0x31c
                    0x031c                  _CCP4RBL = 0x31c
                    0x031e                  CCP4RBH = 0x31e
                    0x031e                  _CCP4RBH = 0x31e
                    0x0320                  CCP4BUFL = 0x320
                    0x0320                  _CCP4BUFL = 0x320
                    0x0322                  CCP4BUFH = 0x322
                    0x0322                  _CCP4BUFH = 0x322
                    0x0398                  U1MODE = 0x398
                    0x0398                  _U1MODE = 0x398
                    0x0398                  _U1MODEbits = 0x398
                    0x039a                  U1STA = 0x39a
                    0x039a                  _U1STA = 0x39a
                    0x039a                  _U1STAbits = 0x39a
                    0x039c                  U1TXREG = 0x39c
                    0x039c                  _U1TXREG = 0x39c
                    0x039c                  _U1TXREGbits = 0x39c
                    0x039e                  U1RXREG = 0x39e
                    0x039e                  _U1RXREG = 0x39e
                    0x03a0                  U1BRG = 0x3a0
                    0x03a0                  _U1BRG = 0x3a0
                    0x03a2                  U1ADMD = 0x3a2
                    0x03a2                  _U1ADMD = 0x3a2
                    0x03a2                  _U1ADMDbits = 0x3a2
                    0x03a4                  U1SCCON = 0x3a4
                    0x03a4                  _U1SCCON = 0x3a4
                    0x03a4                  _U1SCCONbits = 0x3a4
                    0x03a6                  U1SCINT = 0x3a6
                    0x03a6                  _U1SCINT = 0x3a6
                    0x03a6                  _U1SCINTbits = 0x3a6
                    0x03a8                  U1GTC = 0x3a8
                    0x03a8                  _U1GTC = 0x3a8
                    0x03a8                  _U1GTCbits = 0x3a8
                    0x03aa                  U1WTCL = 0x3aa
                    0x03aa                  _U1WTCL = 0x3aa
                    0x03aa                  _U1WTCLbits = 0x3aa
                    0x03ac                  U1WTCH = 0x3ac
                    0x03ac                  _U1WTCH = 0x3ac
                    0x03ac                  _U1WTCHbits = 0x3ac
                    0x03ae                  U2MODE = 0x3ae
                    0x03ae                  _U2MODE = 0x3ae
                    0x03ae                  _U2MODEbits = 0x3ae
                    0x03b0                  U2STA = 0x3b0
                    0x03b0                  _U2STA = 0x3b0
                    0x03b0                  _U2STAbits = 0x3b0
                    0x03b2                  U2TXREG = 0x3b2
                    0x03b2                  _U2TXREG = 0x3b2
                    0x03b2                  _U2TXREGbits = 0x3b2
                    0x03b4                  U2RXREG = 0x3b4
                    0x03b4                  _U2RXREG = 0x3b4
                    0x03b6                  U2BRG = 0x3b6
                    0x03b6                  _U2BRG = 0x3b6
                    0x03b8                  U2ADMD = 0x3b8
                    0x03b8                  _U2ADMD = 0x3b8
                    0x03b8                  _U2ADMDbits = 0x3b8
                    0x03ba                  U2SCCON = 0x3ba
                    0x03ba                  _U2SCCON = 0x3ba
                    0x03ba                  _U2SCCONbits = 0x3ba
                    0x03bc                  U2SCINT = 0x3bc
                    0x03bc                  _U2SCINT = 0x3bc
                    0x03bc                  _U2SCINTbits = 0x3bc
                    0x03be                  U2GTC = 0x3be
                    0x03be                  _U2GTC = 0x3be
                    0x03be                  _U2GTCbits = 0x3be
                    0x03c0                  U2WTCL = 0x3c0
                    0x03c0                  _U2WTCL = 0x3c0
                    0x03c0                  _U2WTCLbits = 0x3c0
                    0x03c2                  U2WTCH = 0x3c2
                    0x03c2                  _U2WTCH = 0x3c2
                    0x03c2                  _U2WTCHbits = 0x3c2
                    0x03f4                  SPI1CON1 = 0x3f4
                    0x03f4                  _SPI1CON1 = 0x3f4
                    0x03f4                  _SPI1CON1bits = 0x3f4
                    0x03f4                  SPI1CON1L = 0x3f4
                    0x03f4                  _SPI1CON1L = 0x3f4
                    0x03f4                  _SPI1CON1Lbits = 0x3f4
                    0x03f6                  SPI1CON1H = 0x3f6
                    0x03f6                  _SPI1CON1H = 0x3f6
                    0x03f6                  _SPI1CON1Hbits = 0x3f6
                    0x03f6                  SPI1CON2 = 0x3f6
                    0x03f6                  _SPI1CON2 = 0x3f6
                    0x03f6                  _SPI1CON2bits = 0x3f6
                    0x03f8                  SPI1CON2L = 0x3f8
                    0x03f8                  _SPI1CON2L = 0x3f8
                    0x03f8                  _SPI1CON2Lbits = 0x3f8
                    0x03f8                  SPI1CON3 = 0x3f8
                    0x03f8                  _SPI1CON3 = 0x3f8
                    0x03f8                  _SPI1CON3bits = 0x3f8
                    0x03fc                  SPI1STATL = 0x3fc
                    0x03fc                  _SPI1STATL = 0x3fc
                    0x03fc                  _SPI1STATLbits = 0x3fc
                    0x03fe                  SPI1STATH = 0x3fe
                    0x03fe                  _SPI1STATH = 0x3fe
                    0x03fe                  _SPI1STATHbits = 0x3fe
                    0x0400                  SPI1BUFL = 0x400
                    0x0400                  _SPI1BUFL = 0x400
                    0x0400                  _SPI1BUFLbits = 0x400
                    0x0402                  SPI1BUFH = 0x402
                    0x0402                  _SPI1BUFH = 0x402
                    0x0402                  _SPI1BUFHbits = 0x402
                    0x0404                  SPI1BRGL = 0x404
                    0x0404                  _SPI1BRGL = 0x404
                    0x0404                  _SPI1BRGLbits = 0x404
                    0x0408                  SPI1IMSK1 = 0x408
                    0x0408                  _SPI1IMSK1 = 0x408
                    0x0408                  _SPI1IMSK1bits = 0x408
                    0x0408                  SPI1IMSKL = 0x408
                    0x0408                  _SPI1IMSKL = 0x408
                    0x0408                  _SPI1IMSKLbits = 0x408
                    0x040a                  SPI1IMSK2 = 0x40a
                    0x040a                  _SPI1IMSK2 = 0x40a
                    0x040a                  _SPI1IMSK2bits = 0x40a
                    0x040a                  SPI1IMSKH = 0x40a
                    0x040a                  _SPI1IMSKH = 0x40a
                    0x040a                  _SPI1IMSKHbits = 0x40a
                    0x040c                  SPI1URDTL = 0x40c
                    0x040c                  _SPI1URDTL = 0x40c
                    0x040c                  _SPI1URDTLbits = 0x40c
                    0x040e                  SPI1URDTH = 0x40e
                    0x040e                  _SPI1URDTH = 0x40e
                    0x040e                  _SPI1URDTHbits = 0x40e
                    0x0410                  SPI2CON1 = 0x410
                    0x0410                  _SPI2CON1 = 0x410
                    0x0410                  _SPI2CON1bits = 0x410
                    0x0410                  SPI2CON1L = 0x410
                    0x0410                  _SPI2CON1L = 0x410
                    0x0410                  _SPI2CON1Lbits = 0x410
                    0x0412                  SPI2CON1H = 0x412
                    0x0412                  _SPI2CON1H = 0x412
                    0x0412                  _SPI2CON1Hbits = 0x412
                    0x0412                  SPI2CON2 = 0x412
                    0x0412                  _SPI2CON2 = 0x412
                    0x0412                  _SPI2CON2bits = 0x412
                    0x0414                  SPI2CON2L = 0x414
                    0x0414                  _SPI2CON2L = 0x414
                    0x0414                  _SPI2CON2Lbits = 0x414
                    0x0414                  SPI2CON3 = 0x414
                    0x0414                  _SPI2CON3 = 0x414
                    0x0414                  _SPI2CON3bits = 0x414
                    0x0418                  SPI2STATL = 0x418
                    0x0418                  _SPI2STATL = 0x418
                    0x0418                  _SPI2STATLbits = 0x418
                    0x041a                  SPI2STATH = 0x41a
                    0x041a                  _SPI2STATH = 0x41a
                    0x041a                  _SPI2STATHbits = 0x41a
                    0x041c                  SPI2BUFL = 0x41c
                    0x041c                  _SPI2BUFL = 0x41c
                    0x041c                  _SPI2BUFLbits = 0x41c
                    0x041e                  SPI2BUFH = 0x41e
                    0x041e                  _SPI2BUFH = 0x41e
                    0x041e                  _SPI2BUFHbits = 0x41e
                    0x0420                  SPI2BRGL = 0x420
                    0x0420                  _SPI2BRGL = 0x420
                    0x0420                  _SPI2BRGLbits = 0x420
                    0x0424                  SPI2IMSK1 = 0x424
                    0x0424                  _SPI2IMSK1 = 0x424
                    0x0424                  _SPI2IMSK1bits = 0x424
                    0x0424                  SPI2IMSKL = 0x424
                    0x0424                  _SPI2IMSKL = 0x424
                    0x0424                  _SPI2IMSKLbits = 0x424
                    0x0426                  SPI2IMSK2 = 0x426
                    0x0426                  _SPI2IMSK2 = 0x426
                    0x0426                  _SPI2IMSK2bits = 0x426
                    0x0426                  SPI2IMSKH = 0x426
                    0x0426                  _SPI2IMSKH = 0x426
                    0x0426                  _SPI2IMSKHbits = 0x426
                    0x0428                  SPI2URDTL = 0x428
                    0x0428                  _SPI2URDTL = 0x428
                    0x0428                  _SPI2URDTLbits = 0x428
                    0x042a                  SPI2URDTH = 0x42a
                    0x042a                  _SPI2URDTH = 0x42a
                    0x042a                  _SPI2URDTHbits = 0x42a
                    0x042c                  SPI3CON1 = 0x42c
                    0x042c                  _SPI3CON1 = 0x42c
                    0x042c                  _SPI3CON1bits = 0x42c
                    0x042c                  SPI3CON1L = 0x42c
                    0x042c                  _SPI3CON1L = 0x42c
                    0x042c                  _SPI3CON1Lbits = 0x42c
                    0x042e                  SPI3CON1H = 0x42e
                    0x042e                  _SPI3CON1H = 0x42e
                    0x042e                  _SPI3CON1Hbits = 0x42e
                    0x042e                  SPI3CON2 = 0x42e
                    0x042e                  _SPI3CON2 = 0x42e
                    0x042e                  _SPI3CON2bits = 0x42e
                    0x0430                  SPI3CON2L = 0x430
                    0x0430                  _SPI3CON2L = 0x430
                    0x0430                  _SPI3CON2Lbits = 0x430
                    0x0430                  SPI3CON3 = 0x430
                    0x0430                  _SPI3CON3 = 0x430
                    0x0430                  _SPI3CON3bits = 0x430
                    0x0434                  SPI3STATL = 0x434
                    0x0434                  _SPI3STATL = 0x434
                    0x0434                  _SPI3STATLbits = 0x434
                    0x0436                  SPI3STATH = 0x436
                    0x0436                  _SPI3STATH = 0x436
                    0x0436                  _SPI3STATHbits = 0x436
                    0x0438                  SPI3BUFL = 0x438
                    0x0438                  _SPI3BUFL = 0x438
                    0x0438                  _SPI3BUFLbits = 0x438
                    0x043a                  SPI3BUFH = 0x43a
                    0x043a                  _SPI3BUFH = 0x43a
                    0x043a                  _SPI3BUFHbits = 0x43a
                    0x043c                  SPI3BRGL = 0x43c
                    0x043c                  _SPI3BRGL = 0x43c
                    0x043c                  _SPI3BRGLbits = 0x43c
                    0x0440                  SPI3IMSK1 = 0x440
                    0x0440                  _SPI3IMSK1 = 0x440
                    0x0440                  _SPI3IMSK1bits = 0x440
                    0x0440                  SPI3IMSKL = 0x440
                    0x0440                  _SPI3IMSKL = 0x440
                    0x0440                  _SPI3IMSKLbits = 0x440
                    0x0442                  SPI3IMSK2 = 0x442
                    0x0442                  _SPI3IMSK2 = 0x442
                    0x0442                  _SPI3IMSK2bits = 0x442
                    0x0442                  SPI3IMSKH = 0x442
                    0x0442                  _SPI3IMSKH = 0x442
                    0x0442                  _SPI3IMSKHbits = 0x442
                    0x0444                  SPI3URDTL = 0x444
                    0x0444                  _SPI3URDTL = 0x444
                    0x0444                  _SPI3URDTLbits = 0x444
                    0x0446                  SPI3URDTH = 0x446
                    0x0446                  _SPI3URDTH = 0x446
                    0x0446                  _SPI3URDTHbits = 0x446
                    0x0464                  CLC1CONL = 0x464
                    0x0464                  _CLC1CONL = 0x464
                    0x0464                  _CLC1CONLbits = 0x464
                    0x0466                  CLC1CONH = 0x466
                    0x0466                  _CLC1CONH = 0x466
                    0x0466                  _CLC1CONHbits = 0x466
                    0x0468                  CLC1SEL = 0x468
                    0x0468                  _CLC1SEL = 0x468
                    0x0468                  _CLC1SELbits = 0x468
                    0x0468                  CLC1SELL = 0x468
                    0x0468                  _CLC1SELL = 0x468
                    0x0468                  _CLC1SELLbits = 0x468
                    0x046c                  CLC1GLSL = 0x46c
                    0x046c                  _CLC1GLSL = 0x46c
                    0x046c                  _CLC1GLSLbits = 0x46c
                    0x046e                  CLC1GLSH = 0x46e
                    0x046e                  _CLC1GLSH = 0x46e
                    0x046e                  _CLC1GLSHbits = 0x46e
                    0x0470                  CLC2CONL = 0x470
                    0x0470                  _CLC2CONL = 0x470
                    0x0470                  _CLC2CONLbits = 0x470
                    0x0472                  CLC2CONH = 0x472
                    0x0472                  _CLC2CONH = 0x472
                    0x0472                  _CLC2CONHbits = 0x472
                    0x0474                  CLC2SEL = 0x474
                    0x0474                  _CLC2SEL = 0x474
                    0x0474                  _CLC2SELbits = 0x474
                    0x0474                  CLC2SELL = 0x474
                    0x0474                  _CLC2SELL = 0x474
                    0x0474                  _CLC2SELLbits = 0x474
                    0x0478                  CLC2GLSL = 0x478
                    0x0478                  _CLC2GLSL = 0x478
                    0x0478                  _CLC2GLSLbits = 0x478
                    0x047a                  CLC2GLSH = 0x47a
                    0x047a                  _CLC2GLSH = 0x47a
                    0x047a                  _CLC2GLSHbits = 0x47a
                    0x0494                  I2C1RCV = 0x494
                    0x0494                  _I2C1RCV = 0x494
                    0x0494                  _I2C1RCVbits = 0x494
                    0x0496                  I2C1TRN = 0x496
                    0x0496                  _I2C1TRN = 0x496
                    0x0496                  _I2C1TRNbits = 0x496
                    0x0498                  I2C1BRG = 0x498
                    0x0498                  _I2C1BRG = 0x498
                    0x049a                  I2C1CON1 = 0x49a
                    0x049a                  _I2C1CON1 = 0x49a
                    0x049a                  _I2C1CON1bits = 0x49a
                    0x049a                  I2C1CONL = 0x49a
                    0x049a                  _I2C1CONL = 0x49a
                    0x049a                  _I2C1CONLbits = 0x49a
                    0x049c                  I2C1CON2 = 0x49c
                    0x049c                  _I2C1CON2 = 0x49c
                    0x049c                  _I2C1CON2bits = 0x49c
                    0x049c                  I2C1CONH = 0x49c
                    0x049c                  _I2C1CONH = 0x49c
                    0x049c                  _I2C1CONHbits = 0x49c
                    0x049e                  I2C1STAT = 0x49e
                    0x049e                  _I2C1STAT = 0x49e
                    0x049e                  _I2C1STATbits = 0x49e
                    0x04a0                  I2C1ADD = 0x4a0
                    0x04a0                  _I2C1ADD = 0x4a0
                    0x04a0                  _I2C1ADDbits = 0x4a0
                    0x04a2                  I2C1MSK = 0x4a2
                    0x04a2                  _I2C1MSK = 0x4a2
                    0x04a2                  _I2C1MSKbits = 0x4a2
                    0x04a4                  I2C2RCV = 0x4a4
                    0x04a4                  _I2C2RCV = 0x4a4
                    0x04a4                  _I2C2RCVbits = 0x4a4
                    0x04a6                  I2C2TRN = 0x4a6
                    0x04a6                  _I2C2TRN = 0x4a6
                    0x04a6                  _I2C2TRNbits = 0x4a6
                    0x04a8                  I2C2BRG = 0x4a8
                    0x04a8                  _I2C2BRG = 0x4a8
                    0x04aa                  I2C2CON1 = 0x4aa
                    0x04aa                  _I2C2CON1 = 0x4aa
                    0x04aa                  _I2C2CON1bits = 0x4aa
                    0x04aa                  I2C2CONL = 0x4aa
                    0x04aa                  _I2C2CONL = 0x4aa
                    0x04aa                  _I2C2CONLbits = 0x4aa
                    0x04ac                  I2C2CON2 = 0x4ac
                    0x04ac                  _I2C2CON2 = 0x4ac
                    0x04ac                  _I2C2CON2bits = 0x4ac
                    0x04ac                  I2C2CONH = 0x4ac
                    0x04ac                  _I2C2CONH = 0x4ac
                    0x04ac                  _I2C2CONHbits = 0x4ac
                    0x04ae                  I2C2STAT = 0x4ae
                    0x04ae                  _I2C2STAT = 0x4ae
                    0x04ae                  _I2C2STATbits = 0x4ae
                    0x04b0                  I2C2ADD = 0x4b0
                    0x04b0                  _I2C2ADD = 0x4b0
                    0x04b0                  _I2C2ADDbits = 0x4b0
                    0x04b2                  I2C2MSK = 0x4b2
                    0x04b2                  _I2C2MSK = 0x4b2
                    0x04b2                  _I2C2MSKbits = 0x4b2
                    0x04c4                  DMACON = 0x4c4
                    0x04c4                  _DMACON = 0x4c4
                    0x04c4                  _DMACONbits = 0x4c4
                    0x04c6                  DMABUF = 0x4c6
                    0x04c6                  _DMABUF = 0x4c6
                    0x04c8                  DMAL = 0x4c8
                    0x04c8                  _DMAL = 0x4c8
                    0x04ca                  DMAH = 0x4ca
                    0x04ca                  _DMAH = 0x4ca
                    0x04cc                  DMACH0 = 0x4cc
                    0x04cc                  _DMACH0 = 0x4cc
                    0x04cc                  _DMACH0bits = 0x4cc
                    0x04ce                  DMAINT0 = 0x4ce
                    0x04ce                  _DMAINT0 = 0x4ce
                    0x04ce                  _DMAINT0bits = 0x4ce
                    0x04d0                  DMASRC0 = 0x4d0
                    0x04d0                  _DMASRC0 = 0x4d0
                    0x04d2                  DMADST0 = 0x4d2
                    0x04d2                  _DMADST0 = 0x4d2
                    0x04d4                  DMACNT0 = 0x4d4
                    0x04d4                  _DMACNT0 = 0x4d4
                    0x04d6                  DMACH1 = 0x4d6
                    0x04d6                  _DMACH1 = 0x4d6
                    0x04d6                  _DMACH1bits = 0x4d6
                    0x04d8                  DMAINT1 = 0x4d8
                    0x04d8                  _DMAINT1 = 0x4d8
                    0x04d8                  _DMAINT1bits = 0x4d8
                    0x04da                  DMASRC1 = 0x4da
                    0x04da                  _DMASRC1 = 0x4da
                    0x04dc                  DMADST1 = 0x4dc
                    0x04dc                  _DMADST1 = 0x4dc
                    0x04de                  DMACNT1 = 0x4de
                    0x04de                  _DMACNT1 = 0x4de
                    0x04e0                  DMACH2 = 0x4e0
                    0x04e0                  _DMACH2 = 0x4e0
                    0x04e0                  _DMACH2bits = 0x4e0
                    0x04e2                  DMAINT2 = 0x4e2
                    0x04e2                  _DMAINT2 = 0x4e2
                    0x04e2                  _DMAINT2bits = 0x4e2
                    0x04e4                  DMASRC2 = 0x4e4
                    0x04e4                  _DMASRC2 = 0x4e4
                    0x04e6                  DMADST2 = 0x4e6
                    0x04e6                  _DMADST2 = 0x4e6
                    0x04e8                  DMACNT2 = 0x4e8
                    0x04e8                  _DMACNT2 = 0x4e8
                    0x04ea                  DMACH3 = 0x4ea
                    0x04ea                  _DMACH3 = 0x4ea
                    0x04ea                  _DMACH3bits = 0x4ea
                    0x04ec                  DMAINT3 = 0x4ec
                    0x04ec                  _DMAINT3 = 0x4ec
                    0x04ec                  _DMAINT3bits = 0x4ec
                    0x04ee                  DMASRC3 = 0x4ee
                    0x04ee                  _DMASRC3 = 0x4ee
                    0x04f0                  DMADST3 = 0x4f0
                    0x04f0                  _DMADST3 = 0x4f0
                    0x04f2                  DMACNT3 = 0x4f2
                    0x04f2                  _DMACNT3 = 0x4f2
                    0x04f4                  DMACH4 = 0x4f4
                    0x04f4                  _DMACH4 = 0x4f4
                    0x04f4                  _DMACH4bits = 0x4f4
                    0x04f6                  DMAINT4 = 0x4f6
                    0x04f6                  _DMAINT4 = 0x4f6
                    0x04f6                  _DMAINT4bits = 0x4f6
                    0x04f8                  DMASRC4 = 0x4f8
                    0x04f8                  _DMASRC4 = 0x4f8
                    0x04fa                  DMADST4 = 0x4fa
                    0x04fa                  _DMADST4 = 0x4fa
                    0x04fc                  DMACNT4 = 0x4fc
                    0x04fc                  _DMACNT4 = 0x4fc
                    0x04fe                  DMACH5 = 0x4fe
                    0x04fe                  _DMACH5 = 0x4fe
                    0x04fe                  _DMACH5bits = 0x4fe
                    0x0500                  DMAINT5 = 0x500
                    0x0500                  _DMAINT5 = 0x500
                    0x0500                  _DMAINT5bits = 0x500
                    0x0502                  DMASRC5 = 0x502
                    0x0502                  _DMASRC5 = 0x502
                    0x0504                  DMADST5 = 0x504
                    0x0504                  _DMADST5 = 0x504
                    0x0506                  DMACNT5 = 0x506
                    0x0506                  _DMACNT5 = 0x506
                    0x065e                  PADCON = 0x65e
                    0x065e                  _PADCON = 0x65e
                    0x065e                  _PADCONbits = 0x65e
                    0x0660                  IOCSTAT = 0x660
                    0x0660                  _IOCSTAT = 0x660
                    0x0660                  _IOCSTATbits = 0x660
                    0x0662                  TRISA = 0x662
                    0x0662                  _TRISA = 0x662
                    0x0662                  _TRISAbits = 0x662
                    0x0664                  PORTA = 0x664
                    0x0664                  _PORTA = 0x664
                    0x0664                  _PORTAbits = 0x664
                    0x0666                  LATA = 0x666
                    0x0666                  _LATA = 0x666
                    0x0666                  _LATAbits = 0x666
                    0x0668                  ODCA = 0x668
                    0x0668                  _ODCA = 0x668
                    0x0668                  _ODCAbits = 0x668
                    0x066a                  ANSA = 0x66a
                    0x066a                  _ANSA = 0x66a
                    0x066a                  _ANSAbits = 0x66a
                    0x066a                  ANSELA = 0x66a
                    0x066a                  _ANSELA = 0x66a
                    0x066a                  _ANSELAbits = 0x66a
                    0x066c                  IOCPA = 0x66c
                    0x066c                  _IOCPA = 0x66c
                    0x066c                  _IOCPAbits = 0x66c
                    0x066e                  IOCNA = 0x66e
                    0x066e                  _IOCNA = 0x66e
                    0x066e                  _IOCNAbits = 0x66e
                    0x0670                  IOCFA = 0x670
                    0x0670                  _IOCFA = 0x670
                    0x0670                  _IOCFAbits = 0x670
                    0x0672                  CNPUA = 0x672
                    0x0672                  _CNPUA = 0x672
                    0x0672                  _CNPUAbits = 0x672
                    0x0672                  IOCPUA = 0x672
                    0x0672                  _IOCPUA = 0x672
                    0x0672                  _IOCPUAbits = 0x672
                    0x0674                  CNPDA = 0x674
                    0x0674                  _CNPDA = 0x674
                    0x0674                  _CNPDAbits = 0x674
                    0x0674                  IOCPDA = 0x674
                    0x0674                  _IOCPDA = 0x674
                    0x0674                  _IOCPDAbits = 0x674
                    0x0676                  TRISB = 0x676
                    0x0676                  _TRISB = 0x676
                    0x0676                  _TRISBbits = 0x676
                    0x0678                  PORTB = 0x678
                    0x0678                  _PORTB = 0x678
                    0x0678                  _PORTBbits = 0x678
                    0x067a                  LATB = 0x67a
                    0x067a                  _LATB = 0x67a
                    0x067a                  _LATBbits = 0x67a
                    0x067c                  ODCB = 0x67c
                    0x067c                  _ODCB = 0x67c
                    0x067c                  _ODCBbits = 0x67c
                    0x067e                  ANSB = 0x67e
                    0x067e                  _ANSB = 0x67e
                    0x067e                  _ANSBbits = 0x67e
                    0x067e                  ANSELB = 0x67e
                    0x067e                  _ANSELB = 0x67e
                    0x067e                  _ANSELBbits = 0x67e
                    0x0680                  IOCPB = 0x680
                    0x0680                  _IOCPB = 0x680
                    0x0680                  _IOCPBbits = 0x680
                    0x0682                  IOCNB = 0x682
                    0x0682                  _IOCNB = 0x682
                    0x0682                  _IOCNBbits = 0x682
                    0x0684                  IOCFB = 0x684
                    0x0684                  _IOCFB = 0x684
                    0x0684                  _IOCFBbits = 0x684
                    0x0686                  CNPUB = 0x686
                    0x0686                  _CNPUB = 0x686
                    0x0686                  _CNPUBbits = 0x686
                    0x0686                  IOCPUB = 0x686
                    0x0686                  _IOCPUB = 0x686
                    0x0686                  _IOCPUBbits = 0x686
                    0x0688                  CNPDB = 0x688
                    0x0688                  _CNPDB = 0x688
                    0x0688                  _CNPDBbits = 0x688
                    0x0688                  IOCPDB = 0x688
                    0x0688                  _IOCPDB = 0x688
                    0x0688                  _IOCPDBbits = 0x688
                    0x068a                  TRISC = 0x68a
                    0x068a                  _TRISC = 0x68a
                    0x068a                  _TRISCbits = 0x68a
                    0x068c                  PORTC = 0x68c
                    0x068c                  _PORTC = 0x68c
                    0x068c                  _PORTCbits = 0x68c
                    0x068e                  LATC = 0x68e
                    0x068e                  _LATC = 0x68e
                    0x068e                  _LATCbits = 0x68e
                    0x0690                  ODCC = 0x690
                    0x0690                  _ODCC = 0x690
                    0x0690                  _ODCCbits = 0x690
                    0x0692                  ANSC = 0x692
                    0x0692                  _ANSC = 0x692
                    0x0692                  _ANSCbits = 0x692
                    0x0692                  ANSELC = 0x692
                    0x0692                  _ANSELC = 0x692
                    0x0692                  _ANSELCbits = 0x692
                    0x0694                  IOCPC = 0x694
                    0x0694                  _IOCPC = 0x694
                    0x0694                  _IOCPCbits = 0x694
                    0x0696                  IOCNC = 0x696
                    0x0696                  _IOCNC = 0x696
                    0x0696                  _IOCNCbits = 0x696
                    0x0698                  IOCFC = 0x698
                    0x0698                  _IOCFC = 0x698
                    0x0698                  _IOCFCbits = 0x698
                    0x069a                  CNPUC = 0x69a
                    0x069a                  _CNPUC = 0x69a
                    0x069a                  _CNPUCbits = 0x69a
                    0x069a                  IOCPUC = 0x69a
                    0x069a                  _IOCPUC = 0x69a
                    0x069a                  _IOCPUCbits = 0x69a
                    0x069c                  CNPDC = 0x69c
                    0x069c                  _CNPDC = 0x69c
                    0x069c                  _CNPDCbits = 0x69c
                    0x069c                  IOCPDC = 0x69c
                    0x069c                  _IOCPDC = 0x69c
                    0x069c                  _IOCPDCbits = 0x69c
                    0x0712                  ADC1BUF0 = 0x712
                    0x0712                  _ADC1BUF0 = 0x712
                    0x0714                  ADC1BUF1 = 0x714
                    0x0714                  _ADC1BUF1 = 0x714
                    0x0716                  ADC1BUF2 = 0x716
                    0x0716                  _ADC1BUF2 = 0x716
                    0x0718                  ADC1BUF3 = 0x718
                    0x0718                  _ADC1BUF3 = 0x718
                    0x071a                  ADC1BUF4 = 0x71a
                    0x071a                  _ADC1BUF4 = 0x71a
                    0x071c                  ADC1BUF5 = 0x71c
                    0x071c                  _ADC1BUF5 = 0x71c
                    0x071e                  ADC1BUF6 = 0x71e
                    0x071e                  _ADC1BUF6 = 0x71e
                    0x0720                  ADC1BUF7 = 0x720
                    0x0720                  _ADC1BUF7 = 0x720
                    0x0722                  ADC1BUF8 = 0x722
                    0x0722                  _ADC1BUF8 = 0x722
                    0x0724                  ADC1BUF9 = 0x724
                    0x0724                  _ADC1BUF9 = 0x724
                    0x0726                  ADC1BUF10 = 0x726
                    0x0726                  _ADC1BUF10 = 0x726
                    0x0728                  ADC1BUF11 = 0x728
                    0x0728                  _ADC1BUF11 = 0x728
                    0x072a                  ADC1BUF12 = 0x72a
                    0x072a                  _ADC1BUF12 = 0x72a
                    0x072c                  ADC1BUF13 = 0x72c
                    0x072c                  _ADC1BUF13 = 0x72c
                    0x072e                  ADC1BUF14 = 0x72e
                    0x072e                  _ADC1BUF14 = 0x72e
                    0x0730                  ADC1BUF15 = 0x730
                    0x0730                  _ADC1BUF15 = 0x730
                    0x0746                  AD1CON1 = 0x746
                    0x0746                  _AD1CON1 = 0x746
                    0x0746                  _AD1CON1bits = 0x746
                    0x0748                  AD1CON2 = 0x748
                    0x0748                  _AD1CON2 = 0x748
                    0x0748                  _AD1CON2bits = 0x748
                    0x074a                  AD1CON3 = 0x74a
                    0x074a                  _AD1CON3 = 0x74a
                    0x074a                  _AD1CON3bits = 0x74a
                    0x074c                  AD1CHS = 0x74c
                    0x074c                  _AD1CHS = 0x74c
                    0x074c                  _AD1CHSbits = 0x74c
                    0x074c                  AD1CHS0 = 0x74c
                    0x074c                  _AD1CHS0 = 0x74c
                    0x074c                  _AD1CHS0bits = 0x74c
                    0x074e                  AD1CSSH = 0x74e
                    0x074e                  _AD1CSSH = 0x74e
                    0x074e                  _AD1CSSHbits = 0x74e
                    0x0750                  AD1CSSL = 0x750
                    0x0750                  _AD1CSSL = 0x750
                    0x0750                  _AD1CSSLbits = 0x750
                    0x0752                  AD1CON4 = 0x752
                    0x0752                  _AD1CON4 = 0x752
                    0x0752                  _AD1CON4bits = 0x752
                    0x0754                  AD1CON5 = 0x754
                    0x0754                  _AD1CON5 = 0x754
                    0x0754                  _AD1CON5bits = 0x754
                    0x0758                  AD1CHITL = 0x758
                    0x0758                  _AD1CHITL = 0x758
                    0x0758                  _AD1CHITLbits = 0x758
                    0x075a                  AD1CTMENH = 0x75a
                    0x075a                  _AD1CTMENH = 0x75a
                    0x075a                  _AD1CTMENHbits = 0x75a
                    0x075c                  AD1CTMENL = 0x75c
                    0x075c                  _AD1CTMENL = 0x75c
                    0x075c                  _AD1CTMENLbits = 0x75c
                    0x075e                  AD1RESDMA = 0x75e
                    0x075e                  _AD1RESDMA = 0x75e
                    0x075e                  _AD1RESDMAbits = 0x75e
                    0x0760                  NVMCON = 0x760
                    0x0760                  _NVMCON = 0x760
                    0x0760                  _NVMCONbits = 0x760
                    0x0762                  NVMADR = 0x762
                    0x0762                  _NVMADR = 0x762
                    0x0762                  _NVMADRbits = 0x762
                    0x0762                  NVMADRL = 0x762
                    0x0762                  _NVMADRL = 0x762
                    0x0762                  _NVMADRLbits = 0x762
                    0x0764                  NVMADRH = 0x764
                    0x0764                  _NVMADRH = 0x764
                    0x0764                  _NVMADRHbits = 0x764
                    0x0764                  NVMADRU = 0x764
                    0x0764                  _NVMADRU = 0x764
                    0x0764                  _NVMADRUbits = 0x764
                    0x0766                  NVMKEY = 0x766
                    0x0766                  _NVMKEY = 0x766
                    0x0790                  RPINR0 = 0x790
                    0x0790                  _RPINR0 = 0x790
                    0x0790                  _RPINR0bits = 0x790
                    0x0792                  RPINR1 = 0x792
                    0x0792                  _RPINR1 = 0x792
                    0x0792                  _RPINR1bits = 0x792
                    0x0794                  RPINR2 = 0x794
                    0x0794                  _RPINR2 = 0x794
                    0x0794                  _RPINR2bits = 0x794
                    0x0796                  RPINR3 = 0x796
                    0x0796                  _RPINR3 = 0x796
                    0x0796                  _RPINR3bits = 0x796
                    0x079a                  RPINR5 = 0x79a
                    0x079a                  _RPINR5 = 0x79a
                    0x079a                  _RPINR5bits = 0x79a
                    0x079c                  RPINR6 = 0x79c
                    0x079c                  _RPINR6 = 0x79c
                    0x079c                  _RPINR6bits = 0x79c
                    0x079e                  RPINR7 = 0x79e
                    0x079e                  _RPINR7 = 0x79e
                    0x079e                  _RPINR7bits = 0x79e
                    0x07a0                  RPINR8 = 0x7a0
                    0x07a0                  _RPINR8 = 0x7a0
                    0x07a0                  _RPINR8bits = 0x7a0
                    0x07a6                  RPINR11 = 0x7a6
                    0x07a6                  _RPINR11 = 0x7a6
                    0x07a6                  _RPINR11bits = 0x7a6
                    0x07a8                  RPINR12 = 0x7a8
                    0x07a8                  _RPINR12 = 0x7a8
                    0x07a8                  _RPINR12bits = 0x7a8
                    0x07b4                  RPINR18 = 0x7b4
                    0x07b4                  _RPINR18 = 0x7b4
                    0x07b4                  _RPINR18bits = 0x7b4
                    0x07b6                  RPINR19 = 0x7b6
                    0x07b6                  _RPINR19 = 0x7b6
                    0x07b6                  _RPINR19bits = 0x7b6
                    0x07b8                  RPINR20 = 0x7b8
                    0x07b8                  _RPINR20 = 0x7b8
                    0x07b8                  _RPINR20bits = 0x7b8
                    0x07ba                  RPINR21 = 0x7ba
                    0x07ba                  _RPINR21 = 0x7ba
                    0x07ba                  _RPINR21bits = 0x7ba
                    0x07bc                  RPINR22 = 0x7bc
                    0x07bc                  _RPINR22 = 0x7bc
                    0x07bc                  _RPINR22bits = 0x7bc
                    0x07be                  RPINR23 = 0x7be
                    0x07be                  _RPINR23 = 0x7be
                    0x07be                  _RPINR23bits = 0x7be
                    0x07c2                  RPINR25 = 0x7c2
                    0x07c2                  _RPINR25 = 0x7c2
                    0x07c2                  _RPINR25bits = 0x7c2
                    0x07c8                  RPINR28 = 0x7c8
                    0x07c8                  _RPINR28 = 0x7c8
                    0x07c8                  _RPINR28bits = 0x7c8
                    0x07ca                  RPINR29 = 0x7ca
                    0x07ca                  _RPINR29 = 0x7ca
                    0x07ca                  _RPINR29bits = 0x7ca
                    0x07d4                  RPOR0 = 0x7d4
                    0x07d4                  _RPOR0 = 0x7d4
                    0x07d4                  _RPOR0bits = 0x7d4
                    0x07d6                  RPOR1 = 0x7d6
                    0x07d6                  _RPOR1 = 0x7d6
                    0x07d6                  _RPOR1bits = 0x7d6
                    0x07d8                  RPOR2 = 0x7d8
                    0x07d8                  _RPOR2 = 0x7d8
                    0x07d8                  _RPOR2bits = 0x7d8
                    0x07da                  RPOR3 = 0x7da
                    0x07da                  _RPOR3 = 0x7da
                    0x07da                  _RPOR3bits = 0x7da
                    0x07dc                  RPOR4 = 0x7dc
                    0x07dc                  _RPOR4 = 0x7dc
                    0x07dc                  _RPOR4bits = 0x7dc
                    0x07de                  RPOR5 = 0x7de
                    0x07de                  _RPOR5 = 0x7de
                    0x07de                  _RPOR5bits = 0x7de
                    0x07e0                  RPOR6 = 0x7e0
                    0x07e0                  _RPOR6 = 0x7e0
                    0x07e0                  _RPOR6bits = 0x7e0
                    0x07e2                  RPOR7 = 0x7e2
                    0x07e2                  _RPOR7 = 0x7e2
                    0x07e2                  _RPOR7bits = 0x7e2
                    0x07e4                  RPOR8 = 0x7e4
                    0x07e4                  _RPOR8 = 0x7e4
                    0x07e4                  _RPOR8bits = 0x7e4
                    0x07e6                  RPOR9 = 0x7e6
                    0x07e6                  _RPOR9 = 0x7e6
                    0x07e6                  _RPOR9bits = 0x7e6
                    0x07e8                  RPOR10 = 0x7e8
                    0x07e8                  _RPOR10 = 0x7e8
                    0x07e8                  _RPOR10bits = 0x7e8
                    0x07ea                  RPOR11 = 0x7ea
                    0x07ea                  _RPOR11 = 0x7ea
                    0x07ea                  _RPOR11bits = 0x7ea
                    0x07ec                  RPOR12 = 0x7ec
                    0x07ec                  _RPOR12 = 0x7ec
                    0x07ec                  _RPOR12bits = 0x7ec
                    0x07ee                  RPOR13 = 0x7ee
                    0x07ee                  _RPOR13 = 0x7ee
                    0x07ee                  _RPOR13bits = 0x7ee
                    0x07f0                  RPOR14 = 0x7f0
                    0x07f0                  _RPOR14 = 0x7f0
                    0x07f0                  _RPOR14bits = 0x7f0
                    0x0204                  IC1 = 0x204
                    0x0204                  _IC1 = 0x204
                    0x020c                  IC2 = 0x20c
                    0x020c                  _IC2 = 0x20c
                    0x0214                  IC3 = 0x214
                    0x0214                  _IC3 = 0x214
                    0x0234                  OC1 = 0x234
                    0x0234                  _OC1 = 0x234
                    0x023e                  OC2 = 0x23e
                    0x023e                  _OC2 = 0x23e
                    0x0248                  OC3 = 0x248
                    0x0248                  _OC3 = 0x248
                    0x03fe                  SPI1 = 0x3fe
                    0x03fe                  _SPI1 = 0x3fe
                    0x041a                  SPI2 = 0x41a
                    0x041a                  _SPI2 = 0x41a
                    0x0436                  SPI3 = 0x436
                    0x0436                  _SPI3 = 0x436
                    0x0398                  UART1 = 0x398
                    0x0398                  _UART1 = 0x398
                    0x03ae                  UART2 = 0x3ae
                    0x03ae                  _UART2 = 0x3ae
START GROUP
LOAD c:/spb_data/bin/bin/../../lib\libc99-pic30-elf.a
LOAD c:/spb_data/bin/bin/../../lib\libm-elf.a
LOAD c:/spb_data/bin/bin/../../lib\libc99-elf.a
END GROUP
OUTPUT(dist/default/debug/Pure_AC164164.X3.debug.elf elf32-pic30)
LOAD /CW/_FSEC
LOAD jump_table
LOAD default_isr
LOAD data_init

.debug_pubtypes
                  0x000468       0x14c1
 .debug_pubtypes
                  0x000468         0x7c build/default/debug/mcc_generated_files/ext_int.o
 .debug_pubtypes
                  0x0004e4        0x13e build/default/debug/mcc_generated_files/i2c1.o
 .debug_pubtypes
                  0x000622         0x78 build/default/debug/mcc_generated_files/interrupt_manager.o
 .debug_pubtypes
                  0x00069a         0x9f build/default/debug/mcc_generated_files/pin_manager.o
 .debug_pubtypes
                  0x000739         0xb1 build/default/debug/mcc_generated_files/tmr1.o
 .debug_pubtypes
                  0x0007ea         0x71 build/default/debug/mcc_generated_files/traps.o
 .debug_pubtypes
                  0x00085b         0x7c build/default/debug/mcc_generated_files/uart2.o
 .debug_pubtypes
                  0x0008d7         0x42 build/default/debug/mcc_generated_files/system.o
 .debug_pubtypes
                  0x000919         0x2b build/default/debug/mcc_generated_files/clock.o
 .debug_pubtypes
                  0x000944         0x89 build/default/debug/mcc_generated_files/spi1.o
 .debug_pubtypes
                  0x0009cd        0x131 build/default/debug/WINC1500/Board_driver/wf_mcu_driver_stub.o
 .debug_pubtypes
                  0x000afe         0x38 build/default/debug/WINC1500/Driver/wf_asic.o
 .debug_pubtypes
                  0x000b36         0x74 build/default/debug/WINC1500/Driver/wf_hif.o
 .debug_pubtypes
                  0x000baa         0x9a build/default/debug/WINC1500/Driver/wf_ota.o
 .debug_pubtypes
                  0x000c44        0x285 build/default/debug/WINC1500/Driver/wf_socket.o
 .debug_pubtypes
                  0x000ec9         0x4f build/default/debug/WINC1500/Driver/wf_spi.o
 .debug_pubtypes
                  0x000f18         0x43 build/default/debug/WINC1500/Driver/wf_spi_flash.o
 .debug_pubtypes
                  0x000f5b         0x38 build/default/debug/WINC1500/Driver/wf_utils.o
 .debug_pubtypes
                  0x000f93        0x3b7 build/default/debug/WINC1500/Driver/wf_wifi.o
 .debug_pubtypes
                  0x00134a         0x12 build/default/debug/WINC1500/Example/winc1500_fw_update_over_serial.o
 .debug_pubtypes
                  0x00135c         0x12 build/default/debug/WINC1500/Example/winc1500_http_download.o
 .debug_pubtypes
                  0x00136e         0x12 build/default/debug/WINC1500/Example/winc1500_locate_ip_address.o
 .debug_pubtypes
                  0x001380         0x12 build/default/debug/WINC1500/Example/winc1500_mac_address.o
 .debug_pubtypes
                  0x001392         0x12 build/default/debug/WINC1500/Example/winc1500_mode_ap.o
 .debug_pubtypes
                  0x0013a4         0x12 build/default/debug/WINC1500/Example/winc1500_mode_change.o
 .debug_pubtypes
                  0x0013b6         0x12 build/default/debug/WINC1500/Example/winc1500_mode_p2p.o
 .debug_pubtypes
                  0x0013c8         0x12 build/default/debug/WINC1500/Example/winc1500_mode_sta.o
 .debug_pubtypes
                  0x0013da         0x12 build/default/debug/WINC1500/Example/winc1500_ota_firmware_update.o
 .debug_pubtypes
                  0x0013ec         0x12 build/default/debug/WINC1500/Example/winc1500_power_save_mode.o
 .debug_pubtypes
                  0x0013fe         0xaf build/default/debug/WINC1500/Example/winc1500_provision_http.o
 .debug_pubtypes
                  0x0014ad         0x12 build/default/debug/WINC1500/Example/winc1500_security_wep_wpa.o
 .debug_pubtypes
                  0x0014bf         0x12 build/default/debug/WINC1500/Example/winc1500_security_wps.o
 .debug_pubtypes
                  0x0014d1         0x12 build/default/debug/WINC1500/Example/winc1500_send_email.o
 .debug_pubtypes
                  0x0014e3         0x12 build/default/debug/WINC1500/Example/winc1500_signal_strength.o
 .debug_pubtypes
                  0x0014f5         0x12 build/default/debug/WINC1500/Example/winc1500_ssl_connect.o
 .debug_pubtypes
                  0x001507         0x12 build/default/debug/WINC1500/Example/winc1500_tcp_client.o
 .debug_pubtypes
                  0x001519         0x12 build/default/debug/WINC1500/Example/winc1500_tcp_server.o
 .debug_pubtypes
                  0x00152b         0x12 build/default/debug/WINC1500/Example/winc1500_time_client.o
 .debug_pubtypes
                  0x00153d         0x12 build/default/debug/WINC1500/Example/winc1500_weather_client.o
 .debug_pubtypes
                  0x00154f        0x2da build/default/debug/WINC1500/Support/winc1500_support_stub.o
 .debug_pubtypes
                  0x001829         0x42 build/default/debug/bsp.o
 .debug_pubtypes
                  0x00186b         0x42 build/default/debug/main.o
 .debug_pubtypes
                  0x0018ad         0x7c build/default/debug/ST7735.o

__c30_signature
                  0x001929        0x2a0
 __c30_signature
                  0x001929          0x6 build/default/debug/mcc_generated_files/ext_int.o
 __c30_signature
                  0x00192f          0x6 build/default/debug/mcc_generated_files/i2c1.o
 __c30_signature
                  0x001935          0x6 build/default/debug/mcc_generated_files/interrupt_manager.o
 __c30_signature
                  0x00193b          0x6 build/default/debug/mcc_generated_files/mcc.o
 __c30_signature
                  0x001941          0x6 build/default/debug/mcc_generated_files/pin_manager.o
 __c30_signature
                  0x001947          0x6 build/default/debug/mcc_generated_files/tmr1.o
 __c30_signature
                  0x00194d          0x6 build/default/debug/mcc_generated_files/traps.o
 __c30_signature
                  0x001953          0x6 build/default/debug/mcc_generated_files/uart2.o
 __c30_signature
                  0x001959          0x6 build/default/debug/mcc_generated_files/system.o
 __c30_signature
                  0x00195f          0x6 build/default/debug/mcc_generated_files/clock.o
 __c30_signature
                  0x001965          0x6 build/default/debug/mcc_generated_files/spi1.o
 __c30_signature
                  0x00196b          0x6 build/default/debug/WINC1500/Board_driver/wf_mcu_driver_stub.o
 __c30_signature
                  0x001971          0x6 build/default/debug/WINC1500/Driver/wf_asic.o
 __c30_signature
                  0x001977          0x6 build/default/debug/WINC1500/Driver/wf_hif.o
 __c30_signature
                  0x00197d          0x6 build/default/debug/WINC1500/Driver/wf_ota.o
 __c30_signature
                  0x001983          0x6 build/default/debug/WINC1500/Driver/wf_socket.o
 __c30_signature
                  0x001989          0x6 build/default/debug/WINC1500/Driver/wf_spi.o
 __c30_signature
                  0x00198f          0x6 build/default/debug/WINC1500/Driver/wf_spi_flash.o
 __c30_signature
                  0x001995          0x6 build/default/debug/WINC1500/Driver/wf_utils.o
 __c30_signature
                  0x00199b          0x6 build/default/debug/WINC1500/Driver/wf_wifi.o
 __c30_signature
                  0x0019a1          0x6 build/default/debug/WINC1500/Example/winc1500_fw_update_over_serial.o
 __c30_signature
                  0x0019a7          0x6 build/default/debug/WINC1500/Example/winc1500_http_download.o
 __c30_signature
                  0x0019ad          0x6 build/default/debug/WINC1500/Example/winc1500_locate_ip_address.o
 __c30_signature
                  0x0019b3          0x6 build/default/debug/WINC1500/Example/winc1500_mac_address.o
 __c30_signature
                  0x0019b9          0x6 build/default/debug/WINC1500/Example/winc1500_mode_ap.o
 __c30_signature
                  0x0019bf          0x6 build/default/debug/WINC1500/Example/winc1500_mode_change.o
 __c30_signature
                  0x0019c5          0x6 build/default/debug/WINC1500/Example/winc1500_mode_p2p.o
 __c30_signature
                  0x0019cb          0x6 build/default/debug/WINC1500/Example/winc1500_mode_sta.o
 __c30_signature
                  0x0019d1          0x6 build/default/debug/WINC1500/Example/winc1500_ota_firmware_update.o
 __c30_signature
                  0x0019d7          0x6 build/default/debug/WINC1500/Example/winc1500_power_save_mode.o
 __c30_signature
                  0x0019dd          0x6 build/default/debug/WINC1500/Example/winc1500_provision_http.o
 __c30_signature
                  0x0019e3          0x6 build/default/debug/WINC1500/Example/winc1500_security_wep_wpa.o
 __c30_signature
                  0x0019e9          0x6 build/default/debug/WINC1500/Example/winc1500_security_wps.o
 __c30_signature
                  0x0019ef          0x6 build/default/debug/WINC1500/Example/winc1500_send_email.o
 __c30_signature
                  0x0019f5          0x6 build/default/debug/WINC1500/Example/winc1500_signal_strength.o
 __c30_signature
                  0x0019fb          0x6 build/default/debug/WINC1500/Example/winc1500_ssl_connect.o
 __c30_signature
                  0x001a01          0x6 build/default/debug/WINC1500/Example/winc1500_tcp_client.o
 __c30_signature
                  0x001a07          0x6 build/default/debug/WINC1500/Example/winc1500_tcp_server.o
 __c30_signature
                  0x001a0d          0x6 build/default/debug/WINC1500/Example/winc1500_time_client.o
 __c30_signature
                  0x001a13          0x6 build/default/debug/WINC1500/Example/winc1500_weather_client.o
 __c30_signature
                  0x001a19          0x6 build/default/debug/WINC1500/Support/winc1500_support_stub.o
 __c30_signature
                  0x001a1f          0x6 build/default/debug/bsp.o
 __c30_signature
                  0x001a25          0x6 build/default/debug/main.o
 __c30_signature
                  0x001a2b          0x6 build/default/debug/ST7735.o
 __c30_signature
                  0x001a31          0x6 c:/spb_data/bin/bin/../../lib\libc99-pic30-elf.a(crt0_extended24.o)
 __c30_signature
                  0x001a37          0x6 c:/spb_data/bin/bin/../../lib\libc99-pic30-elf.a(data_init_24.o)
 __c30_signature
                  0x001a3d          0x6 c:/spb_data/bin/bin/../../lib\libc99-pic30-elf.a(umodsi3.DA_o)
 __c30_signature
                  0x001a43          0x6 c:/spb_data/bin/bin/../../lib\libc99-pic30-elf.a(udivsi3.DA_o)
 __c30_signature
                  0x001a49          0x6 c:/spb_data/bin/bin/../../lib\libc99-elf.a(__sio_printf_0.DA_o)
 __c30_signature
                  0x001a4f          0x6 c:/spb_data/bin/bin/../../lib\libc99-elf.a(__sio_printf_dosux.DA_o)
 __c30_signature
                  0x001a55          0x6 c:/spb_data/bin/bin/../../lib\libc99-elf.a(__sio_printf_doux.DA_o)
 __c30_signature
                  0x001a5b          0x6 c:/spb_data/bin/bin/../../lib\libc99-elf.a(__sio_printf_s.DA_o)
 __c30_signature
                  0x001a61          0x6 c:/spb_data/bin/bin/../../lib\libc99-elf.a(__sio_sprintf_doux.DA_o)
 __c30_signature
                  0x001a67          0x6 c:/spb_data/bin/bin/../../lib\libc99-elf.a(atoi.DA_o)
 __c30_signature
                  0x001a6d          0x6 c:/spb_data/bin/bin/../../lib\libc99-elf.a(memcpy.DA_o)
 __c30_signature
                  0x001a73          0x6 c:/spb_data/bin/bin/../../lib\libc99-elf.a(memset.DA_o)
 __c30_signature
                  0x001a79          0x6 c:/spb_data/bin/bin/../../lib\libc99-elf.a(printf.DA_o)
 __c30_signature
                  0x001a7f          0x6 c:/spb_data/bin/bin/../../lib\libc99-elf.a(puts.DA_o)
 __c30_signature
                  0x001a85          0x6 c:/spb_data/bin/bin/../../lib\libc99-elf.a(stdout.DA_o)
 __c30_signature
                  0x001a8b          0x6 c:/spb_data/bin/bin/../../lib\libc99-elf.a(strcpy.DA_o)
 __c30_signature
                  0x001a91          0x6 c:/spb_data/bin/bin/../../lib\libc99-elf.a(strlen.DA_o)
 __c30_signature
                  0x001a97          0x6 c:/spb_data/bin/bin/../../lib\libc99-elf.a(strtok.DA_o)
 __c30_signature
                  0x001a9d          0x6 c:/spb_data/bin/bin/../../lib\libc99-elf.a(vfprintf.DA_o)
 __c30_signature
                  0x001aa3          0x6 c:/spb_data/bin/bin/../../lib\libc99-elf.a(__fmt_d.DA_o)
 __c30_signature
                  0x001aa9          0x6 c:/spb_data/bin/bin/../../lib\libc99-elf.a(__fmt_o.DA_o)
 __c30_signature
                  0x001aaf          0x6 c:/spb_data/bin/bin/../../lib\libc99-elf.a(__fmt_s.DA_o)
 __c30_signature
                  0x001ab5          0x6 c:/spb_data/bin/bin/../../lib\libc99-elf.a(__fmt_u.DA_o)
 __c30_signature
                  0x001abb          0x6 c:/spb_data/bin/bin/../../lib\libc99-elf.a(__fmt_x.DA_o)
 __c30_signature
                  0x001ac1          0x6 c:/spb_data/bin/bin/../../lib\libc99-elf.a(__int_vfprintf.DA_o)
 __c30_signature
                  0x001ac7          0x6 c:/spb_data/bin/bin/../../lib\libc99-elf.a(__int_vsprintf.DA_o)
 __c30_signature
                  0x001acd          0x6 c:/spb_data/bin/bin/../../lib\libc99-elf.a(__io_fmt_needed.DA_o)
 __c30_signature
                  0x001ad3          0x6 c:/spb_data/bin/bin/../../lib\libc99-elf.a(__io_init_needed.DA_o)
 __c30_signature
                  0x001ad9          0x6 c:/spb_data/bin/bin/../../lib\libc99-elf.a(__out.DA_o)
 __c30_signature
                  0x001adf          0x6 c:/spb_data/bin/bin/../../lib\libc99-elf.a(__pop_float.DA_o)
 __c30_signature
                  0x001ae5          0x6 c:/spb_data/bin/bin/../../lib\libc99-elf.a(__pop_int.DA_o)
 __c30_signature
                  0x001aeb          0x6 c:/spb_data/bin/bin/../../lib\libc99-elf.a(__pop_ptr.DA_o)
 __c30_signature
                  0x001af1          0x6 c:/spb_data/bin/bin/../../lib\libc99-elf.a(__printf_core.DA_o)
 __c30_signature
                  0x001af7          0x6 c:/spb_data/bin/bin/../../lib\libc99-elf.a(__stdio_close.DA_o)
 __c30_signature
                  0x001afd          0x6 c:/spb_data/bin/bin/../../lib\libc99-elf.a(fputs.DA_o)
 __c30_signature
                  0x001b03          0x6 c:/spb_data/bin/bin/../../lib\libc99-elf.a(fwrite.DA_o)
 __c30_signature
                  0x001b09          0x6 c:/spb_data/bin/bin/../../lib\libc99-elf.a(lseek.DA_o)
 __c30_signature
                  0x001b0f          0x6 c:/spb_data/bin/bin/../../lib\libc99-elf.a(putc.DA_o)
 __c30_signature
                  0x001b15          0x6 c:/spb_data/bin/bin/../../lib\libc99-elf.a(stpcpy.DA_o)
 __c30_signature
                  0x001b1b          0x6 c:/spb_data/bin/bin/../../lib\libc99-elf.a(strcspn.DA_o)
 __c30_signature
                  0x001b21          0x6 c:/spb_data/bin/bin/../../lib\libc99-elf.a(strspn.DA_o)
 __c30_signature
                  0x001b27          0x6 c:/spb_data/bin/bin/../../lib\libc99-elf.a(syscall_ret.DA_o)
 __c30_signature
                  0x001b2d          0x6 c:/spb_data/bin/bin/../../lib\libc99-elf.a(tolower.DA_o)
 __c30_signature
                  0x001b33          0x6 c:/spb_data/bin/bin/../../lib\libc99-elf.a(toupper.DA_o)
 __c30_signature
                  0x001b39          0x6 c:/spb_data/bin/bin/../../lib\libc99-elf.a(__errno_location.DA_o)
 __c30_signature
                  0x001b3f          0x6 c:/spb_data/bin/bin/../../lib\libc99-elf.a(__fmt_a.DA_o)
 __c30_signature
                  0x001b45          0x6 c:/spb_data/bin/bin/../../lib\libc99-elf.a(__fmt_fp.DA_o)
 __c30_signature
                  0x001b4b          0x6 c:/spb_data/bin/bin/../../lib\libc99-elf.a(__init_stdio.DA_o)
 __c30_signature
                  0x001b51          0x6 c:/spb_data/bin/bin/../../lib\libc99-elf.a(__int_vsnprintf.DA_o)
 __c30_signature
                  0x001b57          0x6 c:/spb_data/bin/bin/../../lib\libc99-elf.a(__io_file_needed.DA_o)
 __c30_signature
                  0x001b5d          0x6 c:/spb_data/bin/bin/../../lib\libc99-elf.a(strchrnul.DA_o)
 __c30_signature
                  0x001b63          0x6 c:/spb_data/bin/bin/../../lib\libc99-pic30-elf.a(deqltle.DA_o)
 __c30_signature
                  0x001b69          0x6 c:/spb_data/bin/bin/../../lib\libc99-pic30-elf.a(dgtge.DA_o)
 __c30_signature
                  0x001b6f          0x6 c:/spb_data/bin/bin/../../lib\libc99-pic30-elf.a(extendsfdf.DA_o)
 __c30_signature
                  0x001b75          0x6 c:/spb_data/bin/bin/../../lib\libc99-pic30-elf.a(fixdfsi.DA_o)
 __c30_signature
                  0x001b7b          0x6 c:/spb_data/bin/bin/../../lib\libc99-pic30-elf.a(funpack.DA_o)
 __c30_signature
                  0x001b81          0x6 c:/spb_data/bin/bin/../../lib\libc99-pic30-elf.a(mulsi3.DA_o)
 __c30_signature
                  0x001b87          0x6 c:/spb_data/bin/bin/../../lib\libc99-pic30-elf.a(dpadd.DA_o)
 __c30_signature
                  0x001b8d          0x6 c:/spb_data/bin/bin/../../lib\libc99-pic30-elf.a(dpdiv.DA_o)
 __c30_signature
                  0x001b93          0x6 c:/spb_data/bin/bin/../../lib\libc99-pic30-elf.a(dpmul.DA_o)
 __c30_signature
                  0x001b99          0x6 c:/spb_data/bin/bin/../../lib\libc99-pic30-elf.a(dpsubs.DA_o)
 __c30_signature
                  0x001b9f          0x6 c:/spb_data/bin/bin/../../lib\libc99-pic30-elf.a(divmoddi3.DA_o)
 __c30_signature
                  0x001ba5          0x6 c:/spb_data/bin/bin/../../lib\libc99-pic30-elf.a(dcompare.DA_o)
 __c30_signature
                  0x001bab          0x6 c:/spb_data/bin/bin/../../lib\libc99-pic30-elf.a(dtype.DA_o)
 __c30_signature
                  0x001bb1          0x6 c:/spb_data/bin/bin/../../lib\libc99-pic30-elf.a(dunpack.DA_o)
 __c30_signature
                  0x001bb7          0x6 c:/spb_data/bin/bin/../../lib\libc99-pic30-elf.a(dunpack2.DA_o)
 __c30_signature
                  0x001bbd          0x6 c:/spb_data/bin/bin/../../lib\libc99-pic30-elf.a(dpropagateNaN.DA_o)
 __c30_signature
                  0x001bc3          0x6 c:/spb_data/bin/bin/../../lib\libm-elf.a(floorl.DA_o)

__xc_reference_data

.nbss               0x0800         0x4a
 .nbss              0x0800         0x18 build/default/debug/mcc_generated_files/i2c1.o
 .nbss              0x0818         0x10 build/default/debug/WINC1500/Driver/wf_wifi.o
 .nbss              0x0828          0x8 build/default/debug/WINC1500/Support/winc1500_support_stub.o
                    0x082a                  _gpfAppWifiCb
                    0x082c                  _gpfAppSocketCb
                    0x082e                  _gpfAppResolveCb
 .nbss              0x0830          0x6 build/default/debug/WINC1500/Driver/wf_hif.o
                    0x0830                  _pfSigmaCb
                    0x0832                  _pfHifCb
                    0x0834                  _pfCryptoCb
 .nbss              0x0836          0x4 build/default/debug/mcc_generated_files/tmr1.o
 .nbss              0x083a          0x4 build/default/debug/WINC1500/Driver/wf_asic.o
 .nbss              0x083e          0x4 build/default/debug/WINC1500/Driver/wf_socket.o
                    0x083e                  _g_sessionId
                    0x0840                  _g_socketInit
 .nbss              0x0842          0x4 build/default/debug/WINC1500/Driver/wf_spi_flash.o
 .nbss              0x0846          0x4 build/default/debug/ST7735.o
                    0x0846                  _colstart
                    0x0847                  _rowstart
                    0x0848                  __tft_type

.ndata              0x084a          0x2
 .ndata             0x084a          0x2 build/default/debug/mcc_generated_files/traps.o

.nbss               0x084c          0x8
 .nbss              0x084c          0x2 build/default/debug/mcc_generated_files/uart2.o
                    0x084c                  _temp
 .nbss              0x084e          0x2 build/default/debug/WINC1500/Driver/wf_spi.o
 .nbss              0x0850          0x2 build/default/debug/WINC1500/Example/winc1500_provision_http.o
                    0x0850                  _g_appState
 .nbss              0x0852          0x2 build/default/debug/main.o
                    0x0852                  _k

.ndata              0x0854          0x4
 .ndata             0x0854          0x2 build/default/debug/main.o
                    0x0854                  _txt
 .ndata             0x0856          0x2 build/default/debug/ST7735.o
                    0x0856                  _wrap

.bss                0x0858         0xc8
 .bss               0x0858         0xc8 build/default/debug/WINC1500/Driver/wf_socket.o
                    0x0858                  _g_sockets
                    0x08dc                  _g_socketEventData

.data               0x0920         0x9e
 .data              0x0920         0x9e build/default/debug/WINC1500/Example/winc1500_provision_http.o

.bss                0x09be         0x64
 .bss               0x09be         0x64 build/default/debug/WINC1500/Driver/wf_wifi.o

.data               0x0a22         0x42
 .data              0x0a22         0x42 c:/spb_data/bin/bin/../../lib\libc99-elf.a(stdout.DA_o)
                    0x0a22                  __stdout
                    0x0a24                  ___stdout_used

.bss                0x0a64         0x20
 .bss               0x0a64         0x20 build/default/debug/mcc_generated_files/traps.o

.data               0x0a84         0x1e
 .data              0x0a84         0x1e c:/spb_data/bin/bin/../../lib\libc99-elf.a(__printf_core.DA_o)

.bss                0x0aa2         0x12
 .bss               0x0aa2         0x12 build/default/debug/mcc_generated_files/i2c1.o

.data               0x0ab4         0x20
 .data              0x0ab4         0x10 c:/spb_data/bin/bin/../../lib\libc99-elf.a(__fmt_a.DA_o)
 .data              0x0ac4         0x10 c:/spb_data/bin/bin/../../lib\libc99-elf.a(__fmt_fp.DA_o)

.bss                0x0ad4         0x1c
 .bss               0x0ad4          0xc build/default/debug/WINC1500/Driver/wf_hif.o
                    0x0ad4                  _g_hifContext
 .bss               0x0ae0          0x6 build/default/debug/WINC1500/Example/winc1500_provision_http.o
 .bss               0x0ae6          0x4 build/default/debug/WINC1500/Driver/wf_ota.o
 .bss               0x0aea          0x2 build/default/debug/mcc_generated_files/tmr1.o
 .bss               0x0aec          0x2 c:/spb_data/bin/bin/../../lib\libc99-elf.a(strtok.DA_o)
 .bss               0x0aee          0x2 c:/spb_data/bin/bin/../../lib\libc99-elf.a(__errno_location.DA_o)
                    0x0aee                  ___errno_val

.ivt._INT3Interrupt
                  0x00007e          0x2
 .ivt._INT3Interrupt
                  0x00007e          0x2 build/default/debug/mcc_generated_files/ext_int.o

.ivt._MI2C1Interrupt
                  0x000036          0x2
 .ivt._MI2C1Interrupt
                  0x000036          0x2 build/default/debug/mcc_generated_files/i2c1.o

.ivt._IOCInterrupt
                  0x00003a          0x2
 .ivt._IOCInterrupt
                  0x00003a          0x2 build/default/debug/mcc_generated_files/pin_manager.o

.ivt._T1Interrupt
                  0x00001a          0x2
 .ivt._T1Interrupt
                  0x00001a          0x2 build/default/debug/mcc_generated_files/tmr1.o

.ivt._OscillatorFail
                  0x000004          0x2
 .ivt._OscillatorFail
                  0x000004          0x2 build/default/debug/mcc_generated_files/traps.o

.ivt._StackError
                  0x00000a          0x2
 .ivt._StackError
                  0x00000a          0x2 build/default/debug/mcc_generated_files/traps.o

.ivt._AddressError
                  0x000006          0x2
 .ivt._AddressError
                  0x000006          0x2 build/default/debug/mcc_generated_files/traps.o

.ivt._MathError
                  0x00000c          0x2
 .ivt._MathError
                  0x00000c          0x2 build/default/debug/mcc_generated_files/traps.o

.ivt._NVMError    0x000008          0x2
 .ivt._NVMError
                  0x000008          0x2 build/default/debug/mcc_generated_files/traps.o

.config_ALTI2C1
                  0x015f2c          0x2
 .config_ALTI2C1
                  0x015f2c          0x2 build/default/debug/mcc_generated_files/system.o

.config_JTAGEN    0x015f28          0x2
 .config_JTAGEN
                  0x015f28          0x2 build/default/debug/mcc_generated_files/system.o

.config_DNVPEN    0x015f24          0x2
 .config_DNVPEN
                  0x015f24          0x2 build/default/debug/mcc_generated_files/system.o

.config_WDTCLK    0x015f20          0x2
 .config_WDTCLK
                  0x015f20          0x2 build/default/debug/mcc_generated_files/system.o

.config_FCKSM     0x015f1c          0x2
 .config_FCKSM    0x015f1c          0x2 build/default/debug/mcc_generated_files/system.o

.config_IESO      0x015f18          0x2
 .config_IESO     0x015f18          0x2 build/default/debug/mcc_generated_files/system.o

.config_BSLIM     0x015f10          0x2
 .config_BSLIM    0x015f10          0x2 build/default/debug/mcc_generated_files/system.o

.const              0xa8de        0xcfc load address 0x0028de  
 .const             0xa8de        0x3d8 build/default/debug/WINC1500/Driver/wf_wifi.o
 .const             0xacb6        0x2f0 build/default/debug/WINC1500/Driver/wf_spi.o
 .const             0xafa6        0x1dc build/default/debug/ST7735.o
                    0xafa6                  _Font
                    0xb0a5                  _Font2
 .const             0xb182        0x154 build/default/debug/WINC1500/Driver/wf_hif.o
 .const             0xb2d6        0x128 build/default/debug/WINC1500/Example/winc1500_provision_http.o
 .const             0xb3fe         0x9a build/default/debug/WINC1500/Driver/wf_socket.o
 .const             0xb498         0x90 build/default/debug/WINC1500/Support/winc1500_support_stub.o
 .const             0xb528         0x3c build/default/debug/main.o
 .const             0xb564         0x28 build/default/debug/WINC1500/Driver/wf_spi_flash.o
 .const             0xb58c         0x1a build/default/debug/WINC1500/Driver/wf_asic.o
 .const             0xb5a6         0x1a build/default/debug/WINC1500/Driver/wf_ota.o
 .const             0xb5c0          0xe build/default/debug/WINC1500/Driver/wf_utils.o
 .const             0xb5ce          0xc build/default/debug/WINC1500/Board_driver/wf_mcu_driver_stub.o

.text             0x0035da       0x5636
 .text            0x0035da       0x11f6 build/default/debug/ST7735.o
                  0x0035da                  _abs
                  0x0035ee                  _spiwrite
                  0x00361a                  _write_command
                  0x00362c                  _write_data
                  0x00363e                  _Bcmd
                  0x003794                  _Rcmd1
                  0x003846                  _Rcmd2green
                  0x003874                  _Rcmd2red
                  0x0038a2                  _Rcmd3
                  0x003940                  _setAddrWindow
                  0x00398e                  _drawPixel
                  0x0039ce                  _fillRectangle
                  0x003a7e                  _fillScreen
                  0x003a92                  _drawFastVLine
                  0x003b10                  _drawFastHLine
                  0x003b8e                  _drawCircle
                  0x003cee                  _drawCircleHelper
                  0x003e32                  _fillCircleHelper
                  0x003f44                  _fillCircle
                  0x003f7a                  _drawRect
                  0x003fbe                  _drawLine
                  0x0040a4                  _fillRect
                  0x0040d8                  _drawRoundRect
                  0x0041ee                  _fillRoundRect
                  0x004284                  _drawTriangle
                  0x0042bc                  _fillTriangle
                  0x0044d2                  _drawChar
                  0x00460e                  _setTextWrap
                  0x00461a                  _drawtext
                  0x0046c4                  _invertDisplay
                  0x0046dc                  _setScrollDefinition
                  0x004758                  _VerticalScroll
                  0x00476c                  _NormalDisplay
                  0x004776                  _Color565
                  0x004798                  _pushColor
                  0x0047b8                  _TFT_BlackTab_Initialize
 .text            0x0047d0       0x1084 build/default/debug/WINC1500/Driver/wf_wifi.o
                  0x004af8                  _WifiInternalEventHandler
                  0x004c88                  _m2m_wifi_init
                  0x004c90                  _m2m_wifi_deinit
                  0x004c9c                  _m2m_wifi_task
                  0x004cac                  _m2m_wifi_default_connect
                  0x004cc2                  _m2m_wifi_connect
                  0x004ce0                  _m2m_wifi_connect_sc
                  0x004cfe                  _nm_get_firmware_full_info
                  0x004e38                  _m2m_wifi_send_crl
                  0x004e52                  _nm_drv_deinit
                  0x004f40                  _m2m_wifi_disconnect
                  0x004f56                  _m2m_wifi_set_mac_address
                  0x004f76                  _m2m_wifi_set_static_ip
                  0x004f90                  _m2m_wifi_set_lsn_int
                  0x004fb2                  _m2m_wifi_set_cust_InfoElement
                  0x004ff6                  _m2m_wifi_set_scan_options
                  0x005020                  _m2m_wifi_set_scan_region
                  0x00505e                  _m2m_wifi_request_scan
                  0x0050a0                  _m2m_wifi_request_scan_passive
                  0x0050e8                  _m2m_wifi_req_hidden_ssid_scan
                  0x005174                  _m2m_wifi_req_scan_result
                  0x005190                  _m2m_wifi_wps
                  0x0051be                  _m2m_wifi_wps_disable
                  0x0051d4                  _m2m_wifi_p2p
                  0x00520a                  _m2m_wifi_p2p_disconnect
                  0x005220                  _m2m_wifi_enable_ap
                  0x00524c                  _m2m_wifi_disable_ap
                  0x005262                  _m2m_wifi_req_curr_rssi
                  0x005278                  _m2m_wifi_get_otp_mac_address
                  0x00530e                  _m2m_wifi_get_mac_address
                  0x00531e                  _m2m_wifi_set_sleep_mode
                  0x005344                  _m2m_wifi_request_sleep
                  0x00537a                  _m2m_wifi_set_device_name
                  0x0053b8                  _nm_get_firmware_info
                  0x0053ec                  _m2m_wifi_start_provision_mode
                  0x005452                  _m2m_wifi_stop_provision_mode
                  0x005468                  _m2m_wifi_get_connection_info
                  0x00547e                  _m2m_wifi_set_sytem_time
                  0x005498                  _m2m_wifi_get_sytem_time
                  0x0054ae                  _m2m_wifi_enable_sntp
                  0x0054d4                  _m2m_wifi_set_power_profile
                  0x0054f0                  _m2m_wifi_set_tx_power
                  0x00550c                  _m2m_wifi_enable_firmware_log
                  0x005528                  _m2m_wifi_set_battery_voltage
                  0x005546                  _m2m_wifi_prng_get_random_bytes
                  0x00557c                  _m2m_wifi_get_wifi_event_data
                  0x005584                  _GenerateErrorEvent
                  0x005590                  _nm_drv_init_download_mode
 .text            0x005854        0xd72 build/default/debug/WINC1500/Driver/wf_socket.o
                  0x005854                  _m2m_wifi_get_socket_event_data
                  0x00585c                  _ReadSocketData
                  0x00597e                  _SocketInternalEventHandler
                  0x005c64                  _SocketInit
                  0x005c7e                  _socket
                  0x005d3a                  _bind
                  0x005db2                  _listen
                  0x005e14                  _accept
                  0x005e44                  _connect
                  0x005ef0                  _send
                  0x005fb0                  _sendto
                  0x006066                  _recv
                  0x00615c                  _close
                  0x00620c                  _recvfrom
                  0x006302                  _gethostbyname
                  0x006344                  _setsockopt
                  0x0063d2                  _getsockopt
                  0x0063e4                  _m2m_ping_req
                  0x0065a4                  _sslEnableCertExpirationCheck
 .text            0x0065c6        0xa58 build/default/debug/WINC1500/Driver/wf_spi.o
                  0x0065c6                  _nm_spi_init
                  0x00665e                  _spi_write_reg
                  0x0066e8                  _nm_spi_reset
                  0x0066fe                  _spi_write_block
                  0x006712                  _spi_read_reg
                  0x00690c                  _nm_spi_deinit
                  0x006914                  _nm_spi_read_reg
                  0x006928                  _nm_spi_write_reg
                  0x00693c                  _spi_read_block
                  0x006f12                  _nm_read_reg
                  0x006f26                  _nm_write_reg
                  0x006f3a                  _nm_read_block
                  0x006fac                  _nm_write_block
 .text            0x00701e        0x8f2 build/default/debug/WINC1500/Driver/wf_spi_flash.o
                  0x00701e                  _spi_flash_enable
                  0x007188                  _spi_flash_read
                  0x007208                  _spi_flash_write
                  0x007336                  _spi_flash_erase
                  0x0073ca                  _spi_flash_get_size
 .text            0x007910        0x5b2 build/default/debug/WINC1500/Driver/wf_hif.o
                  0x007910                  _m2m_EintHandler
                  0x007942                  _hif_chip_wake
                  0x007970                  _hif_set_sleep_mode
                  0x00797c                  _hif_get_sleep_mode
                  0x007986                  _m2m_wifi_get_sleep_mode
                  0x007990                  _hif_chip_sleep_sc
                  0x0079a8                  _hif_chip_sleep
                  0x0079d2                  _hif_init
                  0x0079e2                  _hif_deinit
                  0x0079f2                  _hif_send
                  0x007d6e                  _hif_handle_isr
                  0x007d88                  _hif_receive
                  0x007e50                  _hif_register_cb
 .text            0x007ec2        0x566 build/default/debug/main.o
                  0x007ec2                  _testlines
                  0x007fe2                  _testfastlines
                  0x008030                  _testdrawrects
                  0x008076                  _testfillrects
                  0x0080e4                  _testfillcircles
                  0x008130                  _testdrawcircles
                  0x008180                  _testroundrects
                  0x0081f2                  _testtriangles
                  0x008252                  _mediabuttons
                  0x0082ec                  _main
 .text            0x008428        0x3da build/default/debug/WINC1500/Driver/wf_asic.o
                  0x008428                  _ChipApplyConfig
                  0x00846c                  _EnableInterrupts
                  0x008498                  _GetChipId
                  0x008566                  _nmi_get_rfrevid
                  0x008572                  _ChipSleep
                  0x008612                  _ChipWake
                  0x0086d0                  _ChipReset
                  0x0086e2                  _ChipHalt
                  0x008754                  _ChipResetAndCpuHalt
                  0x008760                  _ChipDeinit
                  0x008796                  _GetMacAddress
 .text            0x008802        0x232 build/default/debug/WINC1500/Example/winc1500_provision_http.o
                  0x0088e8                  _ApplicationTask
                  0x008980                  build/default/debug/WINC1500/Example/winc1500_provision_http.o:_wifi_cb
 .text            0x008a34        0x1dc build/default/debug/mcc_generated_files/i2c1.o
                  0x008a34                  _I2C1_Initialize
                  0x008a6a                  _I2C1_ErrorCountGet
                  0x008ab4                  _I2C1_MasterWrite
                  0x008ae6                  _I2C1_MasterRead
                  0x008b18                  _I2C1_MasterTRBInsert
                  0x008b90                  _I2C1_MasterReadTRBBuild
                  0x008bc0                  _I2C1_MasterWriteTRBBuild
                  0x008be4                  _I2C1_MasterQueueIsEmpty
                  0x008bfa                  _I2C1_MasterQueueIsFull

.dinit            0x008c10        0x184
 .dinit           0x008c10        0x184 data_init

.text             0x008d94        0x7ea
 .text            0x008d94        0x16c build/default/debug/WINC1500/Board_driver/wf_mcu_driver_stub.o
                  0x008d94                  _m2mStub_PinSet_CE
                  0x008da8                  _m2mStub_PinSet_RESET
                  0x008dbc                  _m2mStub_PinSet_SPI_SS
                  0x008dd0                  _m2mStub_GetOneMsTimer
                  0x008dd8                  _m2mStub_EintEnable
                  0x008de0                  _m2mStub_EintDisable
                  0x008de8                  _m2mStub_SpiTxRx
                  0x008e5e                  _spi1_open
                  0x008eb4                  _SpiInit
                  0x008ebe                  _m2m_wifi_console_write_data
                  0x008ee2                  _m2m_wifi_console_read_data
                  0x008eec                  _m2m_wifi_console_is_read_data
 .text            0x008f00        0x140 build/default/debug/mcc_generated_files/spi1.o
                  0x008f00                  _SPI1_Initialize
                  0x008f1a                  _SPI1_Exchange
                  0x008f4a                  _SPI1_ExchangeBuffer
                  0x009014                  _SPI1_Exchange8bit
                  0x009024                  _SPI1_Exchange8bitBuffer
                  0x009038                  _SPI1_StatusGet
 .text            0x009040        0x116 build/default/debug/WINC1500/Support/winc1500_support_stub.o
                  0x009040                  _m2m_error_handle_events
                  0x009054                  _registerWifiCallback
                  0x009060                  _registerSocketCallback
                  0x009072                  _m2m_wifi_handle_events
                  0x009096                  _isDriverInitComplete
                  0x0090a6                  _m2m_socket_handle_events
                  0x00913a                  _m2m_ota_handle_events
 .text            0x009156        0x110 build/default/debug/WINC1500/Driver/wf_utils.o
                  0x009156                  _DelayMs
                  0x00917c                  _inet_ntop4
                  0x0091b6                  _inet_pton4
                  0x00922e                  _m2m_get_elapsed_time
 .text            0x009266         0xc2 build/default/debug/WINC1500/Driver/wf_ota.o
                  0x009266                  _m2m_wifi_get_ota_event_data
                  0x00926e                  _OtaInternalEventHandler
                  0x0092b4                  _m2m_ota_start_update
                  0x0092d4                  _m2m_ota_rollback
                  0x0092ea                  _m2m_ota_abort
                  0x009300                  _m2m_ota_switch_firmware
                  0x009316                  _nm_get_ota_firmware_info
 .text            0x009328         0xbc build/default/debug/mcc_generated_files/tmr1.o
                  0x009328                  _GetOneMsCounter
                  0x00933a                  _TMR1_Initialize
                  0x009354                  _TMR1_Period16BitSet
                  0x009366                  _TMR1_Period16BitGet
                  0x00936e                  _TMR1_Counter16BitSet
                  0x009380                  _TMR1_Counter16BitGet
                  0x009388                  _TMR1_CallBack
                  0x00939a                  _TMR1_Start
                  0x0093aa                  _TMR1_Stop
                  0x0093b4                  _TMR1_GetElapsedThenClear
                  0x0093cc                  _TMR1_SoftwareCounterGet
                  0x0093d8                  _TMR1_SoftwareCounterClear
 .text            0x0093e4         0x82 build/default/debug/mcc_generated_files/pin_manager.o
                  0x0093e4                  _PIN_MANAGER_Initialize
 .text            0x009466         0x54 build/default/debug/mcc_generated_files/uart2.o
                  0x009466                  _UART2_Initialize
                  0x00947c                  _UART2_Read
                  0x00949a                  _UART2_Write
                  0x0094b2                  _UART2_StatusGet
 .text            0x0094ba         0x46 build/default/debug/mcc_generated_files/clock.o
                  0x0094ba                  _CLOCK_Initialize
 .text            0x009500         0x2e build/default/debug/mcc_generated_files/interrupt_manager.o
                  0x009500                  _INTERRUPT_Initialize
 .text            0x00952e         0x1c build/default/debug/bsp.o
                  0x00952e                  _BspInit
                  0x009544                  _ToggleLed
 .text            0x00954a         0x1a build/default/debug/mcc_generated_files/traps.o
                  0x00954a                  _TRAPS_halt_on_error
 .text            0x009564          0xe build/default/debug/mcc_generated_files/system.o
                  0x009564                  _SYSTEM_Initialize
 .text            0x009572          0xc build/default/debug/mcc_generated_files/ext_int.o
                  0x009572                  _EXT_INT_Initialize
